ARM GAS  C:\Users\MATTHE~1\AppData\Local\Temp\ccHMayWl.s 			page 1


   1              		.cpu cortex-m0
   2              		.fpu softvfp
   3              		.eabi_attribute 20, 1
   4              		.eabi_attribute 21, 1
   5              		.eabi_attribute 23, 3
   6              		.eabi_attribute 24, 1
   7              		.eabi_attribute 25, 1
   8              		.eabi_attribute 26, 1
   9              		.eabi_attribute 30, 6
  10              		.eabi_attribute 34, 0
  11              		.eabi_attribute 18, 4
  12              		.code	16
  13              		.file	"main.c"
  14              		.text
  15              	.Ltext0:
  16              		.cfi_sections	.debug_frame
  17              		.section	.text.isr_UART_1_Int,"ax",%progbits
  18              		.align	2
  19              		.global	isr_UART_1_Int
  20              		.code	16
  21              		.thumb_func
  22              		.type	isr_UART_1_Int, %function
  23              	isr_UART_1_Int:
  24              	.LFB35:
  25              		.file 1 ".\\main.c"
   1:.\main.c      **** /* ========================================
   2:.\main.c      ****  *
   3:.\main.c      ****  * Copyright YOUR COMPANY, THE YEAR
   4:.\main.c      ****  * All Rights Reserved
   5:.\main.c      ****  * UNPUBLISHED, LICENSED SOFTWARE.
   6:.\main.c      ****  *
   7:.\main.c      ****  * CONFIDENTIAL AND PROPRIETARY INFORMATION
   8:.\main.c      ****  * WHICH IS THE PROPERTY OF your company.
   9:.\main.c      ****  *
  10:.\main.c      ****  * ========================================
  11:.\main.c      **** */
  12:.\main.c      **** #include <project.h>
  13:.\main.c      **** 
  14:.\main.c      **** 
  15:.\main.c      **** CY_ISR_PROTO(isr_UART_1_Int);
  16:.\main.c      **** CY_ISR(isr_UART_1_Int) {
  26              		.loc 1 16 0
  27              		.cfi_startproc
  28 0000 90B5     		push	{r4, r7, lr}
  29              		.cfi_def_cfa_offset 12
  30              		.cfi_offset 4, -12
  31              		.cfi_offset 7, -8
  32              		.cfi_offset 14, -4
  33 0002 83B0     		sub	sp, sp, #12
  34              		.cfi_def_cfa_offset 24
  35 0004 00AF     		add	r7, sp, #0
  36              		.cfi_def_cfa_register 7
  17:.\main.c      ****     while(UART_1_GetRxBufferSize()) {
  37              		.loc 1 17 0
  38 0006 0FE0     		b	.L2
  39              	.L4:
  40              	.LBB2:
ARM GAS  C:\Users\MATTHE~1\AppData\Local\Temp\ccHMayWl.s 			page 2


  18:.\main.c      ****         char myChar = UART_1_GetChar();
  41              		.loc 1 18 0
  42 0008 FC1D     		add	r4, r7, #7
  43 000a FFF7FEFF 		bl	UART_1_GetChar
  44 000e 031C     		mov	r3, r0
  45 0010 2370     		strb	r3, [r4]
  19:.\main.c      ****         if (myChar == '1') {
  46              		.loc 1 19 0
  47 0012 FB1D     		add	r3, r7, #7
  48 0014 1B78     		ldrb	r3, [r3]
  49 0016 312B     		cmp	r3, #49
  50 0018 03D1     		bne	.L3
  20:.\main.c      ****             LED_Write(1);   
  51              		.loc 1 20 0
  52 001a 0120     		mov	r0, #1
  53 001c FFF7FEFF 		bl	LED_Write
  54 0020 02E0     		b	.L2
  55              	.L3:
  21:.\main.c      ****         } else {
  22:.\main.c      ****             LED_Write(0);
  56              		.loc 1 22 0
  57 0022 0020     		mov	r0, #0
  58 0024 FFF7FEFF 		bl	LED_Write
  59              	.L2:
  60              	.LBE2:
  17:.\main.c      ****     while(UART_1_GetRxBufferSize()) {
  61              		.loc 1 17 0 discriminator 1
  62 0028 FFF7FEFF 		bl	UART_1_GetRxBufferSize
  63 002c 031C     		mov	r3, r0
  64 002e 002B     		cmp	r3, #0
  65 0030 EAD1     		bne	.L4
  23:.\main.c      ****         }
  24:.\main.c      ****     }
  25:.\main.c      **** }
  66              		.loc 1 25 0
  67 0032 BD46     		mov	sp, r7
  68 0034 03B0     		add	sp, sp, #12
  69              		@ sp needed
  70 0036 90BD     		pop	{r4, r7, pc}
  71              		.cfi_endproc
  72              	.LFE35:
  73              		.size	isr_UART_1_Int, .-isr_UART_1_Int
  74              		.section	.text.main,"ax",%progbits
  75              		.align	2
  76              		.global	main
  77              		.code	16
  78              		.thumb_func
  79              		.type	main, %function
  80              	main:
  81              	.LFB36:
  26:.\main.c      **** 
  27:.\main.c      **** int main()
  28:.\main.c      **** {
  82              		.loc 1 28 0
  83              		.cfi_startproc
  84 0000 90B5     		push	{r4, r7, lr}
  85              		.cfi_def_cfa_offset 12
ARM GAS  C:\Users\MATTHE~1\AppData\Local\Temp\ccHMayWl.s 			page 3


  86              		.cfi_offset 4, -12
  87              		.cfi_offset 7, -8
  88              		.cfi_offset 14, -4
  89 0002 83B0     		sub	sp, sp, #12
  90              		.cfi_def_cfa_offset 24
  91 0004 00AF     		add	r7, sp, #0
  92              		.cfi_def_cfa_register 7
  29:.\main.c      ****     CyGlobalIntEnable;
  93              		.loc 1 29 0
  94              	@ 29 ".\main.c" 1
  95 0006 62B6     		CPSIE   i
  96              	@ 0 "" 2
  30:.\main.c      ****     uint8 recByte;
  31:.\main.c      ****     uint8 tmpStat;
  32:.\main.c      ****     UART_1_Start();
  97              		.loc 1 32 0
  98              		.code	16
  99 0008 FFF7FEFF 		bl	UART_1_Start
  33:.\main.c      ****     
  34:.\main.c      ****     /* Alternatively, check TX_STS_COMPLETE status bit */
  35:.\main.c      ****     UART_1_LoadRxConfig();
 100              		.loc 1 35 0
 101 000c FFF7FEFF 		bl	UART_1_LoadRxConfig
 102              	.L8:
  36:.\main.c      ****     
  37:.\main.c      ****     while (1) {
  38:.\main.c      ****         recByte = UART_1_GetChar();
 103              		.loc 1 38 0
 104 0010 FC1D     		add	r4, r7, #7
 105 0012 FFF7FEFF 		bl	UART_1_GetChar
 106 0016 031C     		mov	r3, r0
 107 0018 2370     		strb	r3, [r4]
  39:.\main.c      ****         if (recByte > 0) {
 108              		.loc 1 39 0
 109 001a FB1D     		add	r3, r7, #7
 110 001c 1B78     		ldrb	r3, [r3]
 111 001e 002B     		cmp	r3, #0
 112 0020 0FD0     		beq	.L6
  40:.\main.c      ****             if (recByte == '1') {
 113              		.loc 1 40 0
 114 0022 FB1D     		add	r3, r7, #7
 115 0024 1B78     		ldrb	r3, [r3]
 116 0026 312B     		cmp	r3, #49
 117 0028 03D1     		bne	.L7
  41:.\main.c      ****                 LED_Write(1);   
 118              		.loc 1 41 0
 119 002a 0120     		mov	r0, #1
 120 002c FFF7FEFF 		bl	LED_Write
 121 0030 07E0     		b	.L6
 122              	.L7:
  42:.\main.c      ****             } else if (recByte == '2') {
 123              		.loc 1 42 0
 124 0032 FB1D     		add	r3, r7, #7
 125 0034 1B78     		ldrb	r3, [r3]
 126 0036 322B     		cmp	r3, #50
 127 0038 03D1     		bne	.L6
  43:.\main.c      ****                 LED_Write(0);
ARM GAS  C:\Users\MATTHE~1\AppData\Local\Temp\ccHMayWl.s 			page 4


 128              		.loc 1 43 0
 129 003a 0020     		mov	r0, #0
 130 003c FFF7FEFF 		bl	LED_Write
  44:.\main.c      ****             }
  45:.\main.c      ****             
  46:.\main.c      ****             /*
  47:.\main.c      ****             UART_1_LoadTxConfig();
  48:.\main.c      ****             UART_1_PutChar(recByte);
  49:.\main.c      ****             do {
  50:.\main.c      ****                 tmpStat = UART_1_ReadTxStatus();
  51:.\main.c      ****             } while (~tmpStat & UART_1_TX_STS_COMPLETE); 
  52:.\main.c      ****             */
  53:.\main.c      ****             
  54:.\main.c      ****             //UART_1_LoadRxConfig();
  55:.\main.c      ****         }
  56:.\main.c      ****     }
 131              		.loc 1 56 0
 132 0040 E6E7     		b	.L8
 133              	.L6:
 134 0042 E5E7     		b	.L8
 135              		.cfi_endproc
 136              	.LFE36:
 137              		.size	main, .-main
 138              		.text
 139              	.Letext0:
 140              		.file 2 ".\\Generated_Source\\PSoC4/cytypes.h"