ARM GAS  C:\Users\MATTHE~1\AppData\Local\Temp\cc3IpA1M.s 			page 1


   1              		.cpu cortex-m0
   2              		.fpu softvfp
   3              		.eabi_attribute 20, 1
   4              		.eabi_attribute 21, 1
   5              		.eabi_attribute 23, 3
   6              		.eabi_attribute 24, 1
   7              		.eabi_attribute 25, 1
   8              		.eabi_attribute 26, 1
   9              		.eabi_attribute 30, 6
  10              		.eabi_attribute 34, 0
  11              		.eabi_attribute 18, 4
  12              		.code	16
  13              		.file	"cyfitter_cfg.c"
  14              		.text
  15              	.Ltext0:
  16              		.cfi_sections	.debug_frame
  17              		.section	.text.CYMEMZERO,"ax",%progbits
  18              		.align	2
  19              		.code	16
  20              		.thumb_func
  21              		.type	CYMEMZERO, %function
  22              	CYMEMZERO:
  23              	.LFB0:
  24              		.file 1 ".\\Generated_Source\\PSoC4\\cyfitter_cfg.c"
   1:.\Generated_Source\PSoC4/cyfitter_cfg.c **** /*******************************************************************************
   2:.\Generated_Source\PSoC4/cyfitter_cfg.c **** * FILENAME: cyfitter_cfg.c
   3:.\Generated_Source\PSoC4/cyfitter_cfg.c **** * PSoC Creator  3.1 SP2
   4:.\Generated_Source\PSoC4/cyfitter_cfg.c **** *
   5:.\Generated_Source\PSoC4/cyfitter_cfg.c **** * Description:
   6:.\Generated_Source\PSoC4/cyfitter_cfg.c **** * This file is automatically generated by PSoC Creator with device 
   7:.\Generated_Source\PSoC4/cyfitter_cfg.c **** * initialization code.  Except for the user defined sections in
   8:.\Generated_Source\PSoC4/cyfitter_cfg.c **** * CyClockStartupError(), this file should not be modified.
   9:.\Generated_Source\PSoC4/cyfitter_cfg.c **** *
  10:.\Generated_Source\PSoC4/cyfitter_cfg.c **** ********************************************************************************
  11:.\Generated_Source\PSoC4/cyfitter_cfg.c **** * Copyright 2013, Cypress Semiconductor Corporation.  All rights reserved.
  12:.\Generated_Source\PSoC4/cyfitter_cfg.c **** * You may use this file only in accordance with the license, terms, conditions, 
  13:.\Generated_Source\PSoC4/cyfitter_cfg.c **** * disclaimers, and limitations in the end user license agreement accompanying 
  14:.\Generated_Source\PSoC4/cyfitter_cfg.c **** * the software package with which this file was provided.
  15:.\Generated_Source\PSoC4/cyfitter_cfg.c **** ********************************************************************************/
  16:.\Generated_Source\PSoC4/cyfitter_cfg.c **** 
  17:.\Generated_Source\PSoC4/cyfitter_cfg.c **** #include <string.h>
  18:.\Generated_Source\PSoC4/cyfitter_cfg.c **** #include <cytypes.h>
  19:.\Generated_Source\PSoC4/cyfitter_cfg.c **** #include <cydevice_trm.h>
  20:.\Generated_Source\PSoC4/cyfitter_cfg.c **** #include <cyfitter.h>
  21:.\Generated_Source\PSoC4/cyfitter_cfg.c **** #include <CyLib.h>
  22:.\Generated_Source\PSoC4/cyfitter_cfg.c **** #include <cyfitter_cfg.h>
  23:.\Generated_Source\PSoC4/cyfitter_cfg.c **** 
  24:.\Generated_Source\PSoC4/cyfitter_cfg.c **** 
  25:.\Generated_Source\PSoC4/cyfitter_cfg.c **** #if defined(__GNUC__) || defined(__ARMCC_VERSION)
  26:.\Generated_Source\PSoC4/cyfitter_cfg.c ****     #define CYPACKED 
  27:.\Generated_Source\PSoC4/cyfitter_cfg.c ****     #define CYPACKED_ATTR __attribute__ ((packed))
  28:.\Generated_Source\PSoC4/cyfitter_cfg.c ****     #define CYALIGNED __attribute__ ((aligned))
  29:.\Generated_Source\PSoC4/cyfitter_cfg.c ****     #define CY_CFG_UNUSED __attribute__ ((unused))
  30:.\Generated_Source\PSoC4/cyfitter_cfg.c ****     #define CY_CFG_SECTION __attribute__ ((section(".psocinit")))
  31:.\Generated_Source\PSoC4/cyfitter_cfg.c ****     
  32:.\Generated_Source\PSoC4/cyfitter_cfg.c ****     #if defined(__ARMCC_VERSION)
  33:.\Generated_Source\PSoC4/cyfitter_cfg.c ****         #define CY_CFG_MEMORY_BARRIER() __memory_changed()
ARM GAS  C:\Users\MATTHE~1\AppData\Local\Temp\cc3IpA1M.s 			page 2


  34:.\Generated_Source\PSoC4/cyfitter_cfg.c ****     #else
  35:.\Generated_Source\PSoC4/cyfitter_cfg.c ****         #define CY_CFG_MEMORY_BARRIER() __sync_synchronize()
  36:.\Generated_Source\PSoC4/cyfitter_cfg.c ****     #endif
  37:.\Generated_Source\PSoC4/cyfitter_cfg.c ****     
  38:.\Generated_Source\PSoC4/cyfitter_cfg.c **** #elif defined(__ICCARM__)
  39:.\Generated_Source\PSoC4/cyfitter_cfg.c ****     #include <intrinsics.h>
  40:.\Generated_Source\PSoC4/cyfitter_cfg.c **** 
  41:.\Generated_Source\PSoC4/cyfitter_cfg.c ****     #define CYPACKED __packed
  42:.\Generated_Source\PSoC4/cyfitter_cfg.c ****     #define CYPACKED_ATTR 
  43:.\Generated_Source\PSoC4/cyfitter_cfg.c ****     #define CYALIGNED _Pragma("data_alignment=4")
  44:.\Generated_Source\PSoC4/cyfitter_cfg.c ****     #define CY_CFG_UNUSED _Pragma("diag_suppress=Pe177")
  45:.\Generated_Source\PSoC4/cyfitter_cfg.c ****     #define CY_CFG_SECTION _Pragma("location=\".psocinit\"")
  46:.\Generated_Source\PSoC4/cyfitter_cfg.c ****     
  47:.\Generated_Source\PSoC4/cyfitter_cfg.c ****     #define CY_CFG_MEMORY_BARRIER() __DMB()
  48:.\Generated_Source\PSoC4/cyfitter_cfg.c ****     
  49:.\Generated_Source\PSoC4/cyfitter_cfg.c **** #else
  50:.\Generated_Source\PSoC4/cyfitter_cfg.c ****     #error Unsupported toolchain
  51:.\Generated_Source\PSoC4/cyfitter_cfg.c **** #endif
  52:.\Generated_Source\PSoC4/cyfitter_cfg.c **** 
  53:.\Generated_Source\PSoC4/cyfitter_cfg.c **** 
  54:.\Generated_Source\PSoC4/cyfitter_cfg.c **** CY_CFG_UNUSED
  55:.\Generated_Source\PSoC4/cyfitter_cfg.c **** static void CYMEMZERO(void *s, size_t n);
  56:.\Generated_Source\PSoC4/cyfitter_cfg.c **** CY_CFG_UNUSED
  57:.\Generated_Source\PSoC4/cyfitter_cfg.c **** static void CYMEMZERO(void *s, size_t n)
  58:.\Generated_Source\PSoC4/cyfitter_cfg.c **** {
  25              		.loc 1 58 0
  26              		.cfi_startproc
  27 0000 80B5     		push	{r7, lr}
  28              		.cfi_def_cfa_offset 8
  29              		.cfi_offset 7, -8
  30              		.cfi_offset 14, -4
  31 0002 82B0     		sub	sp, sp, #8
  32              		.cfi_def_cfa_offset 16
  33 0004 00AF     		add	r7, sp, #0
  34              		.cfi_def_cfa_register 7
  35 0006 7860     		str	r0, [r7, #4]
  36 0008 3960     		str	r1, [r7]
  59:.\Generated_Source\PSoC4/cyfitter_cfg.c **** 	(void)memset(s, 0, n);
  37              		.loc 1 59 0
  38 000a 7A68     		ldr	r2, [r7, #4]
  39 000c 3B68     		ldr	r3, [r7]
  40 000e 101C     		mov	r0, r2
  41 0010 0021     		mov	r1, #0
  42 0012 1A1C     		mov	r2, r3
  43 0014 FFF7FEFF 		bl	memset
  60:.\Generated_Source\PSoC4/cyfitter_cfg.c **** }
  44              		.loc 1 60 0
  45 0018 BD46     		mov	sp, r7
  46 001a 02B0     		add	sp, sp, #8
  47              		@ sp needed
  48 001c 80BD     		pop	{r7, pc}
  49              		.cfi_endproc
  50              	.LFE0:
  51              		.size	CYMEMZERO, .-CYMEMZERO
  52 001e C046     		.section	.text.CYCONFIGCPY,"ax",%progbits
  53              		.align	2
  54              		.code	16
ARM GAS  C:\Users\MATTHE~1\AppData\Local\Temp\cc3IpA1M.s 			page 3


  55              		.thumb_func
  56              		.type	CYCONFIGCPY, %function
  57              	CYCONFIGCPY:
  58              	.LFB1:
  61:.\Generated_Source\PSoC4/cyfitter_cfg.c **** CY_CFG_UNUSED
  62:.\Generated_Source\PSoC4/cyfitter_cfg.c **** static void CYCONFIGCPY(void *dest, const void *src, size_t n);
  63:.\Generated_Source\PSoC4/cyfitter_cfg.c **** CY_CFG_UNUSED
  64:.\Generated_Source\PSoC4/cyfitter_cfg.c **** static void CYCONFIGCPY(void *dest, const void *src, size_t n)
  65:.\Generated_Source\PSoC4/cyfitter_cfg.c **** {
  59              		.loc 1 65 0
  60              		.cfi_startproc
  61 0000 80B5     		push	{r7, lr}
  62              		.cfi_def_cfa_offset 8
  63              		.cfi_offset 7, -8
  64              		.cfi_offset 14, -4
  65 0002 84B0     		sub	sp, sp, #16
  66              		.cfi_def_cfa_offset 24
  67 0004 00AF     		add	r7, sp, #0
  68              		.cfi_def_cfa_register 7
  69 0006 F860     		str	r0, [r7, #12]
  70 0008 B960     		str	r1, [r7, #8]
  71 000a 7A60     		str	r2, [r7, #4]
  66:.\Generated_Source\PSoC4/cyfitter_cfg.c **** 	(void)memcpy(dest, src, n);
  72              		.loc 1 66 0
  73 000c F968     		ldr	r1, [r7, #12]
  74 000e BA68     		ldr	r2, [r7, #8]
  75 0010 7B68     		ldr	r3, [r7, #4]
  76 0012 081C     		mov	r0, r1
  77 0014 111C     		mov	r1, r2
  78 0016 1A1C     		mov	r2, r3
  79 0018 FFF7FEFF 		bl	memcpy
  67:.\Generated_Source\PSoC4/cyfitter_cfg.c **** }
  80              		.loc 1 67 0
  81 001c BD46     		mov	sp, r7
  82 001e 04B0     		add	sp, sp, #16
  83              		@ sp needed
  84 0020 80BD     		pop	{r7, pc}
  85              		.cfi_endproc
  86              	.LFE1:
  87              		.size	CYCONFIGCPY, .-CYCONFIGCPY
  88 0022 C046     		.section	.text.CYCONFIGCPYCODE,"ax",%progbits
  89              		.align	2
  90              		.code	16
  91              		.thumb_func
  92              		.type	CYCONFIGCPYCODE, %function
  93              	CYCONFIGCPYCODE:
  94              	.LFB2:
  68:.\Generated_Source\PSoC4/cyfitter_cfg.c **** CY_CFG_UNUSED
  69:.\Generated_Source\PSoC4/cyfitter_cfg.c **** static void CYCONFIGCPYCODE(void *dest, const void *src, size_t n);
  70:.\Generated_Source\PSoC4/cyfitter_cfg.c **** CY_CFG_UNUSED
  71:.\Generated_Source\PSoC4/cyfitter_cfg.c **** static void CYCONFIGCPYCODE(void *dest, const void *src, size_t n)
  72:.\Generated_Source\PSoC4/cyfitter_cfg.c **** {
  95              		.loc 1 72 0
  96              		.cfi_startproc
  97 0000 80B5     		push	{r7, lr}
  98              		.cfi_def_cfa_offset 8
  99              		.cfi_offset 7, -8
ARM GAS  C:\Users\MATTHE~1\AppData\Local\Temp\cc3IpA1M.s 			page 4


 100              		.cfi_offset 14, -4
 101 0002 84B0     		sub	sp, sp, #16
 102              		.cfi_def_cfa_offset 24
 103 0004 00AF     		add	r7, sp, #0
 104              		.cfi_def_cfa_register 7
 105 0006 F860     		str	r0, [r7, #12]
 106 0008 B960     		str	r1, [r7, #8]
 107 000a 7A60     		str	r2, [r7, #4]
  73:.\Generated_Source\PSoC4/cyfitter_cfg.c **** 	(void)memcpy(dest, src, n);
 108              		.loc 1 73 0
 109 000c F968     		ldr	r1, [r7, #12]
 110 000e BA68     		ldr	r2, [r7, #8]
 111 0010 7B68     		ldr	r3, [r7, #4]
 112 0012 081C     		mov	r0, r1
 113 0014 111C     		mov	r1, r2
 114 0016 1A1C     		mov	r2, r3
 115 0018 FFF7FEFF 		bl	memcpy
  74:.\Generated_Source\PSoC4/cyfitter_cfg.c **** }
 116              		.loc 1 74 0
 117 001c BD46     		mov	sp, r7
 118 001e 04B0     		add	sp, sp, #16
 119              		@ sp needed
 120 0020 80BD     		pop	{r7, pc}
 121              		.cfi_endproc
 122              	.LFE2:
 123              		.size	CYCONFIGCPYCODE, .-CYCONFIGCPYCODE
 124 0022 C046     		.section	.text.cfg_write_bytes32,"ax",%progbits
 125              		.align	2
 126              		.code	16
 127              		.thumb_func
 128              		.type	cfg_write_bytes32, %function
 129              	cfg_write_bytes32:
 130              	.LFB3:
  75:.\Generated_Source\PSoC4/cyfitter_cfg.c **** 
  76:.\Generated_Source\PSoC4/cyfitter_cfg.c **** 
  77:.\Generated_Source\PSoC4/cyfitter_cfg.c **** 
  78:.\Generated_Source\PSoC4/cyfitter_cfg.c **** /* Clock startup error codes                                                   */
  79:.\Generated_Source\PSoC4/cyfitter_cfg.c **** #define CYCLOCKSTART_NO_ERROR    0u
  80:.\Generated_Source\PSoC4/cyfitter_cfg.c **** #define CYCLOCKSTART_XTAL_ERROR  1u
  81:.\Generated_Source\PSoC4/cyfitter_cfg.c **** #define CYCLOCKSTART_32KHZ_ERROR 2u
  82:.\Generated_Source\PSoC4/cyfitter_cfg.c **** #define CYCLOCKSTART_PLL_ERROR   3u
  83:.\Generated_Source\PSoC4/cyfitter_cfg.c **** 
  84:.\Generated_Source\PSoC4/cyfitter_cfg.c **** #ifdef CY_NEED_CYCLOCKSTARTUPERROR
  85:.\Generated_Source\PSoC4/cyfitter_cfg.c **** /*******************************************************************************
  86:.\Generated_Source\PSoC4/cyfitter_cfg.c **** * Function Name: CyClockStartupError
  87:.\Generated_Source\PSoC4/cyfitter_cfg.c **** ********************************************************************************
  88:.\Generated_Source\PSoC4/cyfitter_cfg.c **** * Summary:
  89:.\Generated_Source\PSoC4/cyfitter_cfg.c **** *  If an error is encountered during clock configuration (crystal startup error,
  90:.\Generated_Source\PSoC4/cyfitter_cfg.c **** *  PLL lock error, etc.), the system will end up here.  Unless reimplemented by
  91:.\Generated_Source\PSoC4/cyfitter_cfg.c **** *  the customer, this function will stop in an infinite loop.
  92:.\Generated_Source\PSoC4/cyfitter_cfg.c **** *
  93:.\Generated_Source\PSoC4/cyfitter_cfg.c **** * Parameters:
  94:.\Generated_Source\PSoC4/cyfitter_cfg.c **** *   void
  95:.\Generated_Source\PSoC4/cyfitter_cfg.c **** *
  96:.\Generated_Source\PSoC4/cyfitter_cfg.c **** * Return:
  97:.\Generated_Source\PSoC4/cyfitter_cfg.c **** *   void
  98:.\Generated_Source\PSoC4/cyfitter_cfg.c **** *
ARM GAS  C:\Users\MATTHE~1\AppData\Local\Temp\cc3IpA1M.s 			page 5


  99:.\Generated_Source\PSoC4/cyfitter_cfg.c **** *******************************************************************************/
 100:.\Generated_Source\PSoC4/cyfitter_cfg.c **** CY_CFG_UNUSED
 101:.\Generated_Source\PSoC4/cyfitter_cfg.c **** static void CyClockStartupError(uint8 errorCode);
 102:.\Generated_Source\PSoC4/cyfitter_cfg.c **** CY_CFG_UNUSED
 103:.\Generated_Source\PSoC4/cyfitter_cfg.c **** static void CyClockStartupError(uint8 errorCode)
 104:.\Generated_Source\PSoC4/cyfitter_cfg.c **** {
 105:.\Generated_Source\PSoC4/cyfitter_cfg.c ****     /* To remove the compiler warning if errorCode not used.                */
 106:.\Generated_Source\PSoC4/cyfitter_cfg.c ****     errorCode = errorCode;
 107:.\Generated_Source\PSoC4/cyfitter_cfg.c **** 
 108:.\Generated_Source\PSoC4/cyfitter_cfg.c ****     /* `#START CyClockStartupError` */
 109:.\Generated_Source\PSoC4/cyfitter_cfg.c **** 
 110:.\Generated_Source\PSoC4/cyfitter_cfg.c ****     /* If we have a clock startup error (bad MHz crystal, PLL lock, etc.),  */
 111:.\Generated_Source\PSoC4/cyfitter_cfg.c ****     /* we will end up here to allow the customer to implement something to  */
 112:.\Generated_Source\PSoC4/cyfitter_cfg.c ****     /* deal with the clock condition.                                       */
 113:.\Generated_Source\PSoC4/cyfitter_cfg.c **** 
 114:.\Generated_Source\PSoC4/cyfitter_cfg.c ****     /* `#END` */
 115:.\Generated_Source\PSoC4/cyfitter_cfg.c **** 
 116:.\Generated_Source\PSoC4/cyfitter_cfg.c ****     /* If nothing else, stop here since the clocks have not started         */
 117:.\Generated_Source\PSoC4/cyfitter_cfg.c ****     /* correctly.                                                           */
 118:.\Generated_Source\PSoC4/cyfitter_cfg.c ****     while(1) {}
 119:.\Generated_Source\PSoC4/cyfitter_cfg.c **** }
 120:.\Generated_Source\PSoC4/cyfitter_cfg.c **** #endif
 121:.\Generated_Source\PSoC4/cyfitter_cfg.c **** 
 122:.\Generated_Source\PSoC4/cyfitter_cfg.c **** #define CY_CFG_BASE_ADDR_COUNT 10u
 123:.\Generated_Source\PSoC4/cyfitter_cfg.c **** CYPACKED typedef struct
 124:.\Generated_Source\PSoC4/cyfitter_cfg.c **** {
 125:.\Generated_Source\PSoC4/cyfitter_cfg.c **** 	uint8 offset;
 126:.\Generated_Source\PSoC4/cyfitter_cfg.c **** 	uint8 value;
 127:.\Generated_Source\PSoC4/cyfitter_cfg.c **** } CYPACKED_ATTR cy_cfg_addrvalue_t;
 128:.\Generated_Source\PSoC4/cyfitter_cfg.c **** 
 129:.\Generated_Source\PSoC4/cyfitter_cfg.c **** 
 130:.\Generated_Source\PSoC4/cyfitter_cfg.c **** 
 131:.\Generated_Source\PSoC4/cyfitter_cfg.c **** /*******************************************************************************
 132:.\Generated_Source\PSoC4/cyfitter_cfg.c **** * Function Name: cfg_write_bytes32
 133:.\Generated_Source\PSoC4/cyfitter_cfg.c **** ********************************************************************************
 134:.\Generated_Source\PSoC4/cyfitter_cfg.c **** * Summary:
 135:.\Generated_Source\PSoC4/cyfitter_cfg.c **** *  This function is used for setting up the chip configuration areas that
 136:.\Generated_Source\PSoC4/cyfitter_cfg.c **** *  contain relatively sparse data.
 137:.\Generated_Source\PSoC4/cyfitter_cfg.c **** *
 138:.\Generated_Source\PSoC4/cyfitter_cfg.c **** * Parameters:
 139:.\Generated_Source\PSoC4/cyfitter_cfg.c **** *   void
 140:.\Generated_Source\PSoC4/cyfitter_cfg.c **** *
 141:.\Generated_Source\PSoC4/cyfitter_cfg.c **** * Return:
 142:.\Generated_Source\PSoC4/cyfitter_cfg.c **** *   void
 143:.\Generated_Source\PSoC4/cyfitter_cfg.c **** *
 144:.\Generated_Source\PSoC4/cyfitter_cfg.c **** *******************************************************************************/
 145:.\Generated_Source\PSoC4/cyfitter_cfg.c **** static void cfg_write_bytes32(const uint32 addr_table[], const cy_cfg_addrvalue_t data_table[]);
 146:.\Generated_Source\PSoC4/cyfitter_cfg.c **** static void cfg_write_bytes32(const uint32 addr_table[], const cy_cfg_addrvalue_t data_table[])
 147:.\Generated_Source\PSoC4/cyfitter_cfg.c **** {
 131              		.loc 1 147 0
 132              		.cfi_startproc
 133 0000 80B5     		push	{r7, lr}
 134              		.cfi_def_cfa_offset 8
 135              		.cfi_offset 7, -8
 136              		.cfi_offset 14, -4
 137 0002 86B0     		sub	sp, sp, #24
 138              		.cfi_def_cfa_offset 32
ARM GAS  C:\Users\MATTHE~1\AppData\Local\Temp\cc3IpA1M.s 			page 6


 139 0004 00AF     		add	r7, sp, #0
 140              		.cfi_def_cfa_register 7
 141 0006 7860     		str	r0, [r7, #4]
 142 0008 3960     		str	r1, [r7]
 148:.\Generated_Source\PSoC4/cyfitter_cfg.c **** 	/* For 32-bit little-endian architectures */
 149:.\Generated_Source\PSoC4/cyfitter_cfg.c **** 	uint32 i, j = 0u;
 143              		.loc 1 149 0
 144 000a 0023     		mov	r3, #0
 145 000c 3B61     		str	r3, [r7, #16]
 150:.\Generated_Source\PSoC4/cyfitter_cfg.c **** 	for (i = 0u; i < CY_CFG_BASE_ADDR_COUNT; i++)
 146              		.loc 1 150 0
 147 000e 0023     		mov	r3, #0
 148 0010 7B61     		str	r3, [r7, #20]
 149 0012 2EE0     		b	.L5
 150              	.L8:
 151              	.LBB2:
 151:.\Generated_Source\PSoC4/cyfitter_cfg.c **** 	{
 152:.\Generated_Source\PSoC4/cyfitter_cfg.c **** 		uint32 baseAddr = addr_table[i];
 152              		.loc 1 152 0
 153 0014 7B69     		ldr	r3, [r7, #20]
 154 0016 9B00     		lsl	r3, r3, #2
 155 0018 7A68     		ldr	r2, [r7, #4]
 156 001a D318     		add	r3, r2, r3
 157 001c 1B68     		ldr	r3, [r3]
 158 001e BB60     		str	r3, [r7, #8]
 153:.\Generated_Source\PSoC4/cyfitter_cfg.c **** 		uint8 count = (uint8)baseAddr;
 159              		.loc 1 153 0
 160 0020 3B1C     		mov	r3, r7
 161 0022 0F33     		add	r3, r3, #15
 162 0024 BA68     		ldr	r2, [r7, #8]
 163 0026 1A70     		strb	r2, [r3]
 154:.\Generated_Source\PSoC4/cyfitter_cfg.c **** 		baseAddr &= 0xFFFFFF00u;
 164              		.loc 1 154 0
 165 0028 BB68     		ldr	r3, [r7, #8]
 166 002a FF22     		mov	r2, #255
 167 002c 9343     		bic	r3, r2
 168 002e BB60     		str	r3, [r7, #8]
 155:.\Generated_Source\PSoC4/cyfitter_cfg.c **** 		while (count != 0u)
 169              		.loc 1 155 0
 170 0030 17E0     		b	.L6
 171              	.L7:
 156:.\Generated_Source\PSoC4/cyfitter_cfg.c **** 		{
 157:.\Generated_Source\PSoC4/cyfitter_cfg.c **** 			CY_SET_XTND_REG8((void CYFAR *)(baseAddr + data_table[j].offset), data_table[j].value);
 172              		.loc 1 157 0
 173 0032 3B69     		ldr	r3, [r7, #16]
 174 0034 5B00     		lsl	r3, r3, #1
 175 0036 3A68     		ldr	r2, [r7]
 176 0038 D318     		add	r3, r2, r3
 177 003a 1B78     		ldrb	r3, [r3]
 178 003c 1A1C     		mov	r2, r3
 179 003e BB68     		ldr	r3, [r7, #8]
 180 0040 D318     		add	r3, r2, r3
 181 0042 3A69     		ldr	r2, [r7, #16]
 182 0044 5200     		lsl	r2, r2, #1
 183 0046 3968     		ldr	r1, [r7]
 184 0048 8A18     		add	r2, r1, r2
 185 004a 5278     		ldrb	r2, [r2, #1]
ARM GAS  C:\Users\MATTHE~1\AppData\Local\Temp\cc3IpA1M.s 			page 7


 186 004c 1A70     		strb	r2, [r3]
 158:.\Generated_Source\PSoC4/cyfitter_cfg.c **** 			j++;
 187              		.loc 1 158 0
 188 004e 3B69     		ldr	r3, [r7, #16]
 189 0050 0133     		add	r3, r3, #1
 190 0052 3B61     		str	r3, [r7, #16]
 159:.\Generated_Source\PSoC4/cyfitter_cfg.c **** 			count--;
 191              		.loc 1 159 0
 192 0054 3B1C     		mov	r3, r7
 193 0056 0F33     		add	r3, r3, #15
 194 0058 1A78     		ldrb	r2, [r3]
 195 005a 3B1C     		mov	r3, r7
 196 005c 0F33     		add	r3, r3, #15
 197 005e 013A     		sub	r2, r2, #1
 198 0060 1A70     		strb	r2, [r3]
 199              	.L6:
 155:.\Generated_Source\PSoC4/cyfitter_cfg.c **** 		while (count != 0u)
 200              		.loc 1 155 0 discriminator 1
 201 0062 3B1C     		mov	r3, r7
 202 0064 0F33     		add	r3, r3, #15
 203 0066 1B78     		ldrb	r3, [r3]
 204 0068 002B     		cmp	r3, #0
 205 006a E2D1     		bne	.L7
 206              	.LBE2:
 150:.\Generated_Source\PSoC4/cyfitter_cfg.c **** 	for (i = 0u; i < CY_CFG_BASE_ADDR_COUNT; i++)
 207              		.loc 1 150 0
 208 006c 7B69     		ldr	r3, [r7, #20]
 209 006e 0133     		add	r3, r3, #1
 210 0070 7B61     		str	r3, [r7, #20]
 211              	.L5:
 150:.\Generated_Source\PSoC4/cyfitter_cfg.c **** 	for (i = 0u; i < CY_CFG_BASE_ADDR_COUNT; i++)
 212              		.loc 1 150 0 is_stmt 0 discriminator 1
 213 0072 7B69     		ldr	r3, [r7, #20]
 214 0074 092B     		cmp	r3, #9
 215 0076 CDD9     		bls	.L8
 160:.\Generated_Source\PSoC4/cyfitter_cfg.c **** 		}
 161:.\Generated_Source\PSoC4/cyfitter_cfg.c **** 	}
 162:.\Generated_Source\PSoC4/cyfitter_cfg.c **** }
 216              		.loc 1 162 0 is_stmt 1
 217 0078 BD46     		mov	sp, r7
 218 007a 06B0     		add	sp, sp, #24
 219              		@ sp needed
 220 007c 80BD     		pop	{r7, pc}
 221              		.cfi_endproc
 222              	.LFE3:
 223              		.size	cfg_write_bytes32, .-cfg_write_bytes32
 224 007e C046     		.section	.psocinit,"ax",%progbits
 225              		.align	2
 226              		.code	16
 227              		.thumb_func
 228              		.type	SetIMOBGTrims, %function
 229              	SetIMOBGTrims:
 230              	.LFB4:
 163:.\Generated_Source\PSoC4/cyfitter_cfg.c **** 
 164:.\Generated_Source\PSoC4/cyfitter_cfg.c **** /*******************************************************************************
 165:.\Generated_Source\PSoC4/cyfitter_cfg.c **** * Function Name: SetIMOBGTrims
 166:.\Generated_Source\PSoC4/cyfitter_cfg.c **** ********************************************************************************
ARM GAS  C:\Users\MATTHE~1\AppData\Local\Temp\cc3IpA1M.s 			page 8


 167:.\Generated_Source\PSoC4/cyfitter_cfg.c **** *
 168:.\Generated_Source\PSoC4/cyfitter_cfg.c **** * Summary:
 169:.\Generated_Source\PSoC4/cyfitter_cfg.c **** *   Performs the configuration of the bandgap trim for the IMO based on the given
 170:.\Generated_Source\PSoC4/cyfitter_cfg.c **** *   expected frequency of the IMO. 
 171:.\Generated_Source\PSoC4/cyfitter_cfg.c **** *
 172:.\Generated_Source\PSoC4/cyfitter_cfg.c **** * Parameters:
 173:.\Generated_Source\PSoC4/cyfitter_cfg.c **** *   imoFreq: Frequency for operation of the IMO.
 174:.\Generated_Source\PSoC4/cyfitter_cfg.c **** *
 175:.\Generated_Source\PSoC4/cyfitter_cfg.c **** * Return:
 176:.\Generated_Source\PSoC4/cyfitter_cfg.c **** *   void
 177:.\Generated_Source\PSoC4/cyfitter_cfg.c **** *
 178:.\Generated_Source\PSoC4/cyfitter_cfg.c **** *******************************************************************************/
 179:.\Generated_Source\PSoC4/cyfitter_cfg.c **** static void SetIMOBGTrims(uint8 imoFreq);
 180:.\Generated_Source\PSoC4/cyfitter_cfg.c **** CY_CFG_SECTION
 181:.\Generated_Source\PSoC4/cyfitter_cfg.c **** static void SetIMOBGTrims(uint8 imoFreq)
 182:.\Generated_Source\PSoC4/cyfitter_cfg.c **** {
 231              		.loc 1 182 0
 232              		.cfi_startproc
 233 0000 80B5     		push	{r7, lr}
 234              		.cfi_def_cfa_offset 8
 235              		.cfi_offset 7, -8
 236              		.cfi_offset 14, -4
 237 0002 84B0     		sub	sp, sp, #16
 238              		.cfi_def_cfa_offset 24
 239 0004 00AF     		add	r7, sp, #0
 240              		.cfi_def_cfa_register 7
 241 0006 021C     		mov	r2, r0
 242 0008 FB1D     		add	r3, r7, #7
 243 000a 1A70     		strb	r2, [r3]
 183:.\Generated_Source\PSoC4/cyfitter_cfg.c **** 	CYPACKED typedef struct {
 184:.\Generated_Source\PSoC4/cyfitter_cfg.c **** 		uint8 freq;
 185:.\Generated_Source\PSoC4/cyfitter_cfg.c **** 		uint8 absolute;
 186:.\Generated_Source\PSoC4/cyfitter_cfg.c **** 		uint8 tmpco;
 187:.\Generated_Source\PSoC4/cyfitter_cfg.c **** 	} CYPACKED_ATTR imo_trim_entry_t;
 188:.\Generated_Source\PSoC4/cyfitter_cfg.c **** 
 189:.\Generated_Source\PSoC4/cyfitter_cfg.c **** 	CYPACKED typedef struct {
 190:.\Generated_Source\PSoC4/cyfitter_cfg.c **** 		imo_trim_entry_t entries[4];
 191:.\Generated_Source\PSoC4/cyfitter_cfg.c **** 	} CYPACKED_ATTR imo_trim_table_t;
 192:.\Generated_Source\PSoC4/cyfitter_cfg.c **** 
 193:.\Generated_Source\PSoC4/cyfitter_cfg.c **** 	static const imo_trim_table_t *imo_trim_table = (const imo_trim_table_t *)CYREG_SFLASH_IMO_MAXF0;
 194:.\Generated_Source\PSoC4/cyfitter_cfg.c **** 	static const uint32 IMO_TRIM_FREQ_TABLE_ENTRIES = sizeof(imo_trim_table->entries)/sizeof(imo_trim_
 195:.\Generated_Source\PSoC4/cyfitter_cfg.c **** 
 196:.\Generated_Source\PSoC4/cyfitter_cfg.c **** 	int32 imoTrimIndex;
 197:.\Generated_Source\PSoC4/cyfitter_cfg.c **** 	uint8 setAbs;
 198:.\Generated_Source\PSoC4/cyfitter_cfg.c **** 	uint8 setTmpCo;
 199:.\Generated_Source\PSoC4/cyfitter_cfg.c **** 
 200:.\Generated_Source\PSoC4/cyfitter_cfg.c **** 	/* Traverse the SFLASH IMO frequency-dependent bandgap trim table to
 201:.\Generated_Source\PSoC4/cyfitter_cfg.c **** 	 * locate the appropriate value to trim the IMO bandgap based on freq. */
 202:.\Generated_Source\PSoC4/cyfitter_cfg.c **** 	setAbs = CY_GET_REG8((const void *)CYREG_SFLASH_IMO_ABS4);
 244              		.loc 1 202 0
 245 000c 204A     		ldr	r2, .L13
 246 000e 3B1C     		mov	r3, r7
 247 0010 0B33     		add	r3, r3, #11
 248 0012 1278     		ldrb	r2, [r2]
 249 0014 1A70     		strb	r2, [r3]
 203:.\Generated_Source\PSoC4/cyfitter_cfg.c **** 	setTmpCo = CY_GET_REG8((const void *)CYREG_SFLASH_IMO_TMPCO4);
 250              		.loc 1 203 0
ARM GAS  C:\Users\MATTHE~1\AppData\Local\Temp\cc3IpA1M.s 			page 9


 251 0016 1F4A     		ldr	r2, .L13+4
 252 0018 3B1C     		mov	r3, r7
 253 001a 0A33     		add	r3, r3, #10
 254 001c 1278     		ldrb	r2, [r2]
 255 001e 1A70     		strb	r2, [r3]
 204:.\Generated_Source\PSoC4/cyfitter_cfg.c **** 	for (imoTrimIndex = ((int32)IMO_TRIM_FREQ_TABLE_ENTRIES)-1;
 256              		.loc 1 204 0
 257 0020 0423     		mov	r3, #4
 258 0022 013B     		sub	r3, r3, #1
 259 0024 FB60     		str	r3, [r7, #12]
 260 0026 18E0     		b	.L10
 261              	.L12:
 205:.\Generated_Source\PSoC4/cyfitter_cfg.c **** 	     (imoTrimIndex >= 0) && (imoFreq <= imo_trim_table->entries[imoTrimIndex].freq);
 206:.\Generated_Source\PSoC4/cyfitter_cfg.c **** 	     imoTrimIndex--)
 207:.\Generated_Source\PSoC4/cyfitter_cfg.c **** 	{
 208:.\Generated_Source\PSoC4/cyfitter_cfg.c **** 		setAbs = imo_trim_table->entries[imoTrimIndex].absolute;
 262              		.loc 1 208 0
 263 0028 1B4B     		ldr	r3, .L13+8
 264 002a 1868     		ldr	r0, [r3]
 265 002c 391C     		mov	r1, r7
 266 002e 0B31     		add	r1, r1, #11
 267 0030 FA68     		ldr	r2, [r7, #12]
 268 0032 131C     		mov	r3, r2
 269 0034 5B00     		lsl	r3, r3, #1
 270 0036 9B18     		add	r3, r3, r2
 271 0038 C318     		add	r3, r0, r3
 272 003a 5B78     		ldrb	r3, [r3, #1]
 273 003c 0B70     		strb	r3, [r1]
 209:.\Generated_Source\PSoC4/cyfitter_cfg.c **** 		setTmpCo = imo_trim_table->entries[imoTrimIndex].tmpco;
 274              		.loc 1 209 0
 275 003e 164B     		ldr	r3, .L13+8
 276 0040 1868     		ldr	r0, [r3]
 277 0042 391C     		mov	r1, r7
 278 0044 0A31     		add	r1, r1, #10
 279 0046 FA68     		ldr	r2, [r7, #12]
 280 0048 131C     		mov	r3, r2
 281 004a 5B00     		lsl	r3, r3, #1
 282 004c 9B18     		add	r3, r3, r2
 283 004e C318     		add	r3, r0, r3
 284 0050 9B78     		ldrb	r3, [r3, #2]
 285 0052 0B70     		strb	r3, [r1]
 206:.\Generated_Source\PSoC4/cyfitter_cfg.c **** 	     imoTrimIndex--)
 286              		.loc 1 206 0
 287 0054 FB68     		ldr	r3, [r7, #12]
 288 0056 013B     		sub	r3, r3, #1
 289 0058 FB60     		str	r3, [r7, #12]
 290              	.L10:
 204:.\Generated_Source\PSoC4/cyfitter_cfg.c **** 	for (imoTrimIndex = ((int32)IMO_TRIM_FREQ_TABLE_ENTRIES)-1;
 291              		.loc 1 204 0 discriminator 1
 292 005a FB68     		ldr	r3, [r7, #12]
 293 005c 002B     		cmp	r3, #0
 294 005e 0ADB     		blt	.L11
 205:.\Generated_Source\PSoC4/cyfitter_cfg.c **** 	     (imoTrimIndex >= 0) && (imoFreq <= imo_trim_table->entries[imoTrimIndex].freq);
 295              		.loc 1 205 0
 296 0060 0D4B     		ldr	r3, .L13+8
 297 0062 1968     		ldr	r1, [r3]
 298 0064 FA68     		ldr	r2, [r7, #12]
ARM GAS  C:\Users\MATTHE~1\AppData\Local\Temp\cc3IpA1M.s 			page 10


 299 0066 131C     		mov	r3, r2
 300 0068 5B00     		lsl	r3, r3, #1
 301 006a 9B18     		add	r3, r3, r2
 302 006c 5B5C     		ldrb	r3, [r3, r1]
 303 006e FA1D     		add	r2, r7, #7
 304 0070 1278     		ldrb	r2, [r2]
 305 0072 9A42     		cmp	r2, r3
 306 0074 D8D9     		bls	.L12
 307              	.L11:
 210:.\Generated_Source\PSoC4/cyfitter_cfg.c **** 	}
 211:.\Generated_Source\PSoC4/cyfitter_cfg.c **** 
 212:.\Generated_Source\PSoC4/cyfitter_cfg.c **** 	CY_SET_REG32((void *)CYREG_PWR_BG_TRIM4, setAbs);
 308              		.loc 1 212 0
 309 0076 094B     		ldr	r3, .L13+12
 310 0078 3A1C     		mov	r2, r7
 311 007a 0B32     		add	r2, r2, #11
 312 007c 1278     		ldrb	r2, [r2]
 313 007e 1A60     		str	r2, [r3]
 213:.\Generated_Source\PSoC4/cyfitter_cfg.c **** 	CY_SET_REG32((void *)CYREG_PWR_BG_TRIM5, setTmpCo);
 314              		.loc 1 213 0
 315 0080 074B     		ldr	r3, .L13+16
 316 0082 3A1C     		mov	r2, r7
 317 0084 0A32     		add	r2, r2, #10
 318 0086 1278     		ldrb	r2, [r2]
 319 0088 1A60     		str	r2, [r3]
 214:.\Generated_Source\PSoC4/cyfitter_cfg.c **** }
 320              		.loc 1 214 0
 321 008a BD46     		mov	sp, r7
 322 008c 04B0     		add	sp, sp, #16
 323              		@ sp needed
 324 008e 80BD     		pop	{r7, pc}
 325              	.L14:
 326              		.align	2
 327              	.L13:
 328 0090 CCF1FF0F 		.word	268431820
 329 0094 CDF1FF0F 		.word	268431821
 330 0098 00000000 		.word	imo_trim_table.4708
 331 009c 1CFF0B40 		.word	1074528028
 332 00a0 20FF0B40 		.word	1074528032
 333              		.cfi_endproc
 334              	.LFE4:
 335              		.size	SetIMOBGTrims, .-SetIMOBGTrims
 336              		.align	2
 337              		.code	16
 338              		.thumb_func
 339              		.type	ClockSetup, %function
 340              	ClockSetup:
 341              	.LFB5:
 215:.\Generated_Source\PSoC4/cyfitter_cfg.c **** 
 216:.\Generated_Source\PSoC4/cyfitter_cfg.c **** 
 217:.\Generated_Source\PSoC4/cyfitter_cfg.c **** 
 218:.\Generated_Source\PSoC4/cyfitter_cfg.c **** /*******************************************************************************
 219:.\Generated_Source\PSoC4/cyfitter_cfg.c **** * Function Name: ClockSetup
 220:.\Generated_Source\PSoC4/cyfitter_cfg.c **** ********************************************************************************
 221:.\Generated_Source\PSoC4/cyfitter_cfg.c **** *
 222:.\Generated_Source\PSoC4/cyfitter_cfg.c **** * Summary:
 223:.\Generated_Source\PSoC4/cyfitter_cfg.c **** *   Performs the initialization of all of the clocks in the device based on the
ARM GAS  C:\Users\MATTHE~1\AppData\Local\Temp\cc3IpA1M.s 			page 11


 224:.\Generated_Source\PSoC4/cyfitter_cfg.c **** *   settings in the Clock tab of the DWR.  This includes enabling the requested
 225:.\Generated_Source\PSoC4/cyfitter_cfg.c **** *   clocks and setting the necessary dividers to produce the desired frequency. 
 226:.\Generated_Source\PSoC4/cyfitter_cfg.c **** *
 227:.\Generated_Source\PSoC4/cyfitter_cfg.c **** * Parameters:
 228:.\Generated_Source\PSoC4/cyfitter_cfg.c **** *   void
 229:.\Generated_Source\PSoC4/cyfitter_cfg.c **** *
 230:.\Generated_Source\PSoC4/cyfitter_cfg.c **** * Return:
 231:.\Generated_Source\PSoC4/cyfitter_cfg.c **** *   void
 232:.\Generated_Source\PSoC4/cyfitter_cfg.c **** *
 233:.\Generated_Source\PSoC4/cyfitter_cfg.c **** *******************************************************************************/
 234:.\Generated_Source\PSoC4/cyfitter_cfg.c **** static void ClockSetup(void);
 235:.\Generated_Source\PSoC4/cyfitter_cfg.c **** CY_CFG_SECTION
 236:.\Generated_Source\PSoC4/cyfitter_cfg.c **** static void ClockSetup(void)
 237:.\Generated_Source\PSoC4/cyfitter_cfg.c **** {
 342              		.loc 1 237 0
 343              		.cfi_startproc
 344 00a4 80B5     		push	{r7, lr}
 345              		.cfi_def_cfa_offset 8
 346              		.cfi_offset 7, -8
 347              		.cfi_offset 14, -4
 348 00a6 00AF     		add	r7, sp, #0
 349              		.cfi_def_cfa_register 7
 238:.\Generated_Source\PSoC4/cyfitter_cfg.c **** 	/* Enable HALF_EN before trimming for the flash accelerator. */
 239:.\Generated_Source\PSoC4/cyfitter_cfg.c **** 	CY_SET_REG32((void CYXDATA *)(CYREG_CLK_SELECT), (CY_GET_REG32((void *)CYREG_CLK_SELECT) | 0x00040
 350              		.loc 1 239 0
 351 00a8 1F4B     		ldr	r3, .L16
 352 00aa 1F4A     		ldr	r2, .L16
 353 00ac 1268     		ldr	r2, [r2]
 354 00ae 8021     		mov	r1, #128
 355 00b0 C902     		lsl	r1, r1, #11
 356 00b2 0A43     		orr	r2, r1
 357 00b4 1A60     		str	r2, [r3]
 240:.\Generated_Source\PSoC4/cyfitter_cfg.c **** 
 241:.\Generated_Source\PSoC4/cyfitter_cfg.c **** 	/* Trim IMO BG based on desired frequency. */
 242:.\Generated_Source\PSoC4/cyfitter_cfg.c **** 	SetIMOBGTrims(24u);
 358              		.loc 1 242 0
 359 00b6 1820     		mov	r0, #24
 360 00b8 FFF7A2FF 		bl	SetIMOBGTrims
 243:.\Generated_Source\PSoC4/cyfitter_cfg.c **** 
 244:.\Generated_Source\PSoC4/cyfitter_cfg.c **** 	/* Going less than or equal to 24MHz, so update the clock speed then adjust trim value. */
 245:.\Generated_Source\PSoC4/cyfitter_cfg.c **** 	CY_SET_REG32((void CYXDATA *)(CYREG_CLK_IMO_TRIM2), (25u));
 361              		.loc 1 245 0
 362 00bc 1B4B     		ldr	r3, .L16+4
 363 00be 1922     		mov	r2, #25
 364 00c0 1A60     		str	r2, [r3]
 246:.\Generated_Source\PSoC4/cyfitter_cfg.c **** 	CyDelayCycles(5u);
 365              		.loc 1 246 0
 366 00c2 0520     		mov	r0, #5
 367 00c4 FFF7FEFF 		bl	CyDelayCycles
 247:.\Generated_Source\PSoC4/cyfitter_cfg.c **** 	CY_SET_REG32((void CYXDATA *)(CYREG_CLK_IMO_TRIM1), (CY_GET_REG8((void *)CYREG_SFLASH_IMO_TRIM21))
 368              		.loc 1 247 0
 369 00c8 194B     		ldr	r3, .L16+8
 370 00ca 1A4A     		ldr	r2, .L16+12
 371 00cc 1278     		ldrb	r2, [r2]
 372 00ce D2B2     		uxtb	r2, r2
 373 00d0 1A60     		str	r2, [r3]
 248:.\Generated_Source\PSoC4/cyfitter_cfg.c **** 	CyDelayUs(5u);
ARM GAS  C:\Users\MATTHE~1\AppData\Local\Temp\cc3IpA1M.s 			page 12


 374              		.loc 1 248 0
 375 00d2 0520     		mov	r0, #5
 376 00d4 FFF7FEFF 		bl	CyDelayUs
 249:.\Generated_Source\PSoC4/cyfitter_cfg.c **** 
 250:.\Generated_Source\PSoC4/cyfitter_cfg.c **** 	/* Disable HALF_EN since it is not required at this IMO frequency. */
 251:.\Generated_Source\PSoC4/cyfitter_cfg.c **** 	CY_SET_REG32((void CYXDATA *)(CYREG_CLK_SELECT), (CY_GET_REG32((void *)CYREG_CLK_SELECT) & 0xFFFBF
 377              		.loc 1 251 0
 378 00d8 134B     		ldr	r3, .L16
 379 00da 134A     		ldr	r2, .L16
 380 00dc 1168     		ldr	r1, [r2]
 381 00de 164A     		ldr	r2, .L16+16
 382 00e0 0A40     		and	r2, r1
 383 00e2 1A60     		str	r2, [r3]
 252:.\Generated_Source\PSoC4/cyfitter_cfg.c **** 	/* CYDEV_CLK_ILO_CONFIG Starting address: CYDEV_CLK_ILO_CONFIG */
 253:.\Generated_Source\PSoC4/cyfitter_cfg.c **** 	CY_SET_XTND_REG32((void CYFAR *)(CYREG_CLK_ILO_CONFIG), 0x80000006u);
 384              		.loc 1 253 0
 385 00e4 154B     		ldr	r3, .L16+20
 386 00e6 164A     		ldr	r2, .L16+24
 387 00e8 1A60     		str	r2, [r3]
 254:.\Generated_Source\PSoC4/cyfitter_cfg.c **** 
 255:.\Generated_Source\PSoC4/cyfitter_cfg.c **** 
 256:.\Generated_Source\PSoC4/cyfitter_cfg.c **** 	/* CYDEV_CLK_SELECT00 Starting address: CYDEV_CLK_SELECT00 */
 257:.\Generated_Source\PSoC4/cyfitter_cfg.c **** 	CY_SET_XTND_REG32((void CYFAR *)(CYREG_CLK_SELECT02), 0x00000010u);
 388              		.loc 1 257 0
 389 00ea 164B     		ldr	r3, .L16+28
 390 00ec 1022     		mov	r2, #16
 391 00ee 1A60     		str	r2, [r3]
 258:.\Generated_Source\PSoC4/cyfitter_cfg.c **** 	CY_SET_XTND_REG32((void CYFAR *)(CYREG_CLK_SELECT03), 0x00000020u);
 392              		.loc 1 258 0
 393 00f0 154B     		ldr	r3, .L16+32
 394 00f2 2022     		mov	r2, #32
 395 00f4 1A60     		str	r2, [r3]
 259:.\Generated_Source\PSoC4/cyfitter_cfg.c **** 	CY_SET_XTND_REG32((void CYFAR *)(CYREG_CLK_SELECT13), 0x00000030u);
 396              		.loc 1 259 0
 397 00f6 154B     		ldr	r3, .L16+36
 398 00f8 3022     		mov	r2, #48
 399 00fa 1A60     		str	r2, [r3]
 260:.\Generated_Source\PSoC4/cyfitter_cfg.c **** 	CY_SET_XTND_REG32((void CYFAR *)(CYREG_CLK_SELECT15), 0x00000011u);
 400              		.loc 1 260 0
 401 00fc 144B     		ldr	r3, .L16+40
 402 00fe 1122     		mov	r2, #17
 403 0100 1A60     		str	r2, [r3]
 261:.\Generated_Source\PSoC4/cyfitter_cfg.c **** 
 262:.\Generated_Source\PSoC4/cyfitter_cfg.c **** 	/* CYDEV_CLK_IMO_CONFIG Starting address: CYDEV_CLK_IMO_CONFIG */
 263:.\Generated_Source\PSoC4/cyfitter_cfg.c **** 	CY_SET_XTND_REG32((void CYFAR *)(CYREG_CLK_IMO_CONFIG), 0x80000000u);
 404              		.loc 1 263 0
 405 0102 144B     		ldr	r3, .L16+44
 406 0104 8022     		mov	r2, #128
 407 0106 1206     		lsl	r2, r2, #24
 408 0108 1A60     		str	r2, [r3]
 264:.\Generated_Source\PSoC4/cyfitter_cfg.c **** 
 265:.\Generated_Source\PSoC4/cyfitter_cfg.c **** 	/* CYDEV_CLK_DIVIDER_A00 Starting address: CYDEV_CLK_DIVIDER_A00 */
 266:.\Generated_Source\PSoC4/cyfitter_cfg.c **** 	CY_SET_XTND_REG32((void CYFAR *)(CYREG_CLK_DIVIDER_A00), 0x80000033u);
 409              		.loc 1 266 0
 410 010a 134B     		ldr	r3, .L16+48
 411 010c 134A     		ldr	r2, .L16+52
 412 010e 1A60     		str	r2, [r3]
ARM GAS  C:\Users\MATTHE~1\AppData\Local\Temp\cc3IpA1M.s 			page 13


 267:.\Generated_Source\PSoC4/cyfitter_cfg.c **** 
 268:.\Generated_Source\PSoC4/cyfitter_cfg.c **** 	/* CYDEV_CLK_DIVIDER_B00 Starting address: CYDEV_CLK_DIVIDER_B00 */
 269:.\Generated_Source\PSoC4/cyfitter_cfg.c **** 	CY_SET_XTND_REG32((void CYFAR *)(CYREG_CLK_DIVIDER_B00), 0x80000033u);
 413              		.loc 1 269 0
 414 0110 134B     		ldr	r3, .L16+56
 415 0112 124A     		ldr	r2, .L16+52
 416 0114 1A60     		str	r2, [r3]
 270:.\Generated_Source\PSoC4/cyfitter_cfg.c **** 
 271:.\Generated_Source\PSoC4/cyfitter_cfg.c **** 	/* CYDEV_CLK_DIVIDER_C00 Starting address: CYDEV_CLK_DIVIDER_C00 */
 272:.\Generated_Source\PSoC4/cyfitter_cfg.c **** 	CY_SET_XTND_REG32((void CYFAR *)(CYREG_CLK_DIVIDER_C00), 0x8000004Du);
 417              		.loc 1 272 0
 418 0116 134B     		ldr	r3, .L16+60
 419 0118 134A     		ldr	r2, .L16+64
 420 011a 1A60     		str	r2, [r3]
 273:.\Generated_Source\PSoC4/cyfitter_cfg.c **** 
 274:.\Generated_Source\PSoC4/cyfitter_cfg.c **** 	/* CYDEV_CLK_DIVIDER_A01 Starting address: CYDEV_CLK_DIVIDER_A01 */
 275:.\Generated_Source\PSoC4/cyfitter_cfg.c **** 	CY_SET_XTND_REG32((void CYFAR *)(CYREG_CLK_DIVIDER_A01), 0x8000004Du);
 421              		.loc 1 275 0
 422 011c 134B     		ldr	r3, .L16+68
 423 011e 124A     		ldr	r2, .L16+64
 424 0120 1A60     		str	r2, [r3]
 276:.\Generated_Source\PSoC4/cyfitter_cfg.c **** 
 277:.\Generated_Source\PSoC4/cyfitter_cfg.c **** }
 425              		.loc 1 277 0
 426 0122 BD46     		mov	sp, r7
 427              		@ sp needed
 428 0124 80BD     		pop	{r7, pc}
 429              	.L17:
 430 0126 C046     		.align	2
 431              	.L16:
 432 0128 00010B40 		.word	1074462976
 433 012c 2CFF0B40 		.word	1074528044
 434 0130 28FF0B40 		.word	1074528040
 435 0134 E5F1FF0F 		.word	268431845
 436 0138 FFFFFBFF 		.word	-262145
 437 013c 04010B40 		.word	1074462980
 438 0140 06000080 		.word	-2147483642
 439 0144 08020240 		.word	1073873416
 440 0148 0C020240 		.word	1073873420
 441 014c 34020240 		.word	1073873460
 442 0150 3C020240 		.word	1073873468
 443 0154 08010B40 		.word	1074462984
 444 0158 00000240 		.word	1073872896
 445 015c 33000080 		.word	-2147483597
 446 0160 40000240 		.word	1073872960
 447 0164 80000240 		.word	1073873024
 448 0168 4D000080 		.word	-2147483571
 449 016c 04000240 		.word	1073872900
 450              		.cfi_endproc
 451              	.LFE5:
 452              		.size	ClockSetup, .-ClockSetup
 453              		.section	.text.AnalogSetDefault,"ax",%progbits
 454              		.align	2
 455              		.code	16
 456              		.thumb_func
 457              		.type	AnalogSetDefault, %function
 458              	AnalogSetDefault:
ARM GAS  C:\Users\MATTHE~1\AppData\Local\Temp\cc3IpA1M.s 			page 14


 459              	.LFB6:
 278:.\Generated_Source\PSoC4/cyfitter_cfg.c **** 
 279:.\Generated_Source\PSoC4/cyfitter_cfg.c **** 
 280:.\Generated_Source\PSoC4/cyfitter_cfg.c **** /* Analog API Functions */
 281:.\Generated_Source\PSoC4/cyfitter_cfg.c **** 
 282:.\Generated_Source\PSoC4/cyfitter_cfg.c **** 
 283:.\Generated_Source\PSoC4/cyfitter_cfg.c **** /*******************************************************************************
 284:.\Generated_Source\PSoC4/cyfitter_cfg.c **** * Function Name: AnalogSetDefault
 285:.\Generated_Source\PSoC4/cyfitter_cfg.c **** ********************************************************************************
 286:.\Generated_Source\PSoC4/cyfitter_cfg.c **** *
 287:.\Generated_Source\PSoC4/cyfitter_cfg.c **** * Summary:
 288:.\Generated_Source\PSoC4/cyfitter_cfg.c **** *  Sets up the analog portions of the chip to default values based on chip
 289:.\Generated_Source\PSoC4/cyfitter_cfg.c **** *  configuration options from the project.
 290:.\Generated_Source\PSoC4/cyfitter_cfg.c **** *
 291:.\Generated_Source\PSoC4/cyfitter_cfg.c **** * Parameters:
 292:.\Generated_Source\PSoC4/cyfitter_cfg.c **** *  void
 293:.\Generated_Source\PSoC4/cyfitter_cfg.c **** *
 294:.\Generated_Source\PSoC4/cyfitter_cfg.c **** * Return:
 295:.\Generated_Source\PSoC4/cyfitter_cfg.c **** *  void
 296:.\Generated_Source\PSoC4/cyfitter_cfg.c **** *
 297:.\Generated_Source\PSoC4/cyfitter_cfg.c **** *******************************************************************************/
 298:.\Generated_Source\PSoC4/cyfitter_cfg.c **** static void AnalogSetDefault(void);
 299:.\Generated_Source\PSoC4/cyfitter_cfg.c **** static void AnalogSetDefault(void)
 300:.\Generated_Source\PSoC4/cyfitter_cfg.c **** {
 460              		.loc 1 300 0
 461              		.cfi_startproc
 462 0000 80B5     		push	{r7, lr}
 463              		.cfi_def_cfa_offset 8
 464              		.cfi_offset 7, -8
 465              		.cfi_offset 14, -4
 466 0002 00AF     		add	r7, sp, #0
 467              		.cfi_def_cfa_register 7
 301:.\Generated_Source\PSoC4/cyfitter_cfg.c **** }
 468              		.loc 1 301 0
 469 0004 BD46     		mov	sp, r7
 470              		@ sp needed
 471 0006 80BD     		pop	{r7, pc}
 472              		.cfi_endproc
 473              	.LFE6:
 474              		.size	AnalogSetDefault, .-AnalogSetDefault
 475              		.section	.psocinit
 476              		.align	2
 477              		.global	cyfitter_cfg
 478              		.code	16
 479              		.thumb_func
 480              		.type	cyfitter_cfg, %function
 481              	cyfitter_cfg:
 482              	.LFB7:
 302:.\Generated_Source\PSoC4/cyfitter_cfg.c **** 
 303:.\Generated_Source\PSoC4/cyfitter_cfg.c **** #define CY_AMUX_UNUSED CYREG_CM0_ROM_DWT
 304:.\Generated_Source\PSoC4/cyfitter_cfg.c **** 
 305:.\Generated_Source\PSoC4/cyfitter_cfg.c **** 
 306:.\Generated_Source\PSoC4/cyfitter_cfg.c **** /*******************************************************************************
 307:.\Generated_Source\PSoC4/cyfitter_cfg.c **** * Function Name: cyfitter_cfg
 308:.\Generated_Source\PSoC4/cyfitter_cfg.c **** ********************************************************************************
 309:.\Generated_Source\PSoC4/cyfitter_cfg.c **** * Summary:
 310:.\Generated_Source\PSoC4/cyfitter_cfg.c **** *  This function is called by the start-up code for the selected device. It
ARM GAS  C:\Users\MATTHE~1\AppData\Local\Temp\cc3IpA1M.s 			page 15


 311:.\Generated_Source\PSoC4/cyfitter_cfg.c **** *  performs all of the necessary device configuration based on the design
 312:.\Generated_Source\PSoC4/cyfitter_cfg.c **** *  settings.  This includes settings from the Design Wide Resources (DWR) such
 313:.\Generated_Source\PSoC4/cyfitter_cfg.c **** *  as Clocks and Pins as well as any component configuration that is necessary.
 314:.\Generated_Source\PSoC4/cyfitter_cfg.c **** *
 315:.\Generated_Source\PSoC4/cyfitter_cfg.c **** * Parameters:  
 316:.\Generated_Source\PSoC4/cyfitter_cfg.c **** *   void
 317:.\Generated_Source\PSoC4/cyfitter_cfg.c **** *
 318:.\Generated_Source\PSoC4/cyfitter_cfg.c **** * Return:
 319:.\Generated_Source\PSoC4/cyfitter_cfg.c **** *   void
 320:.\Generated_Source\PSoC4/cyfitter_cfg.c **** *
 321:.\Generated_Source\PSoC4/cyfitter_cfg.c **** *******************************************************************************/
 322:.\Generated_Source\PSoC4/cyfitter_cfg.c **** CY_CFG_SECTION
 323:.\Generated_Source\PSoC4/cyfitter_cfg.c **** void cyfitter_cfg(void)
 324:.\Generated_Source\PSoC4/cyfitter_cfg.c **** {
 483              		.loc 1 324 0
 484              		.cfi_startproc
 485 0170 80B5     		push	{r7, lr}
 486              		.cfi_def_cfa_offset 8
 487              		.cfi_offset 7, -8
 488              		.cfi_offset 14, -4
 489 0172 82B0     		sub	sp, sp, #8
 490              		.cfi_def_cfa_offset 16
 491 0174 00AF     		add	r7, sp, #0
 492              		.cfi_def_cfa_register 7
 325:.\Generated_Source\PSoC4/cyfitter_cfg.c **** 	/* Disable interrupts by default. Let user enable if/when they want. */
 326:.\Generated_Source\PSoC4/cyfitter_cfg.c **** 	CyGlobalIntDisable;
 493              		.loc 1 326 0
 494              	@ 326 ".\Generated_Source\PSoC4\cyfitter_cfg.c" 1
 495 0176 72B6     		CPSID   i
 496              	@ 0 "" 2
 327:.\Generated_Source\PSoC4/cyfitter_cfg.c **** 
 328:.\Generated_Source\PSoC4/cyfitter_cfg.c **** 	/* Enable the clock in the interrupt controller for the routed interrupts */
 329:.\Generated_Source\PSoC4/cyfitter_cfg.c **** 	CY_SET_REG8((void *)CYREG_UDB_UDBIF_INT_CLK_CTL, 0x01u);
 497              		.loc 1 329 0
 498              		.code	16
 499 0178 4E4B     		ldr	r3, .L22
 500 017a 0122     		mov	r2, #1
 501 017c 1A70     		strb	r2, [r3]
 502              	.LBB3:
 330:.\Generated_Source\PSoC4/cyfitter_cfg.c **** 	{
 331:.\Generated_Source\PSoC4/cyfitter_cfg.c **** 		static const uint32 CYCODE cy_cfg_addr_table[] = {
 332:.\Generated_Source\PSoC4/cyfitter_cfg.c **** 			0x400F0004u, /* Base address: 0x400F0000 Count: 4 */
 333:.\Generated_Source\PSoC4/cyfitter_cfg.c **** 			0x400F306Eu, /* Base address: 0x400F3000 Count: 110 */
 334:.\Generated_Source\PSoC4/cyfitter_cfg.c **** 			0x400F3148u, /* Base address: 0x400F3100 Count: 72 */
 335:.\Generated_Source\PSoC4/cyfitter_cfg.c **** 			0x400F3269u, /* Base address: 0x400F3200 Count: 105 */
 336:.\Generated_Source\PSoC4/cyfitter_cfg.c **** 			0x400F3358u, /* Base address: 0x400F3300 Count: 88 */
 337:.\Generated_Source\PSoC4/cyfitter_cfg.c **** 			0x400F4006u, /* Base address: 0x400F4000 Count: 6 */
 338:.\Generated_Source\PSoC4/cyfitter_cfg.c **** 			0x400F4103u, /* Base address: 0x400F4100 Count: 3 */
 339:.\Generated_Source\PSoC4/cyfitter_cfg.c **** 			0x400F4209u, /* Base address: 0x400F4200 Count: 9 */
 340:.\Generated_Source\PSoC4/cyfitter_cfg.c **** 			0x400F4305u, /* Base address: 0x400F4300 Count: 5 */
 341:.\Generated_Source\PSoC4/cyfitter_cfg.c **** 			0x400F6002u, /* Base address: 0x400F6000 Count: 2 */
 342:.\Generated_Source\PSoC4/cyfitter_cfg.c **** 		};
 343:.\Generated_Source\PSoC4/cyfitter_cfg.c **** 
 344:.\Generated_Source\PSoC4/cyfitter_cfg.c **** 		static const cy_cfg_addrvalue_t CYCODE cy_cfg_data_table[] = {
 345:.\Generated_Source\PSoC4/cyfitter_cfg.c **** 			{0x80u, 0x72u},
 346:.\Generated_Source\PSoC4/cyfitter_cfg.c **** 			{0x81u, 0x38u},
 347:.\Generated_Source\PSoC4/cyfitter_cfg.c **** 			{0x82u, 0x38u},
ARM GAS  C:\Users\MATTHE~1\AppData\Local\Temp\cc3IpA1M.s 			page 16


 348:.\Generated_Source\PSoC4/cyfitter_cfg.c **** 			{0x83u, 0x72u},
 349:.\Generated_Source\PSoC4/cyfitter_cfg.c **** 			{0x00u, 0xFFu},
 350:.\Generated_Source\PSoC4/cyfitter_cfg.c **** 			{0x01u, 0x20u},
 351:.\Generated_Source\PSoC4/cyfitter_cfg.c **** 			{0x04u, 0x4Cu},
 352:.\Generated_Source\PSoC4/cyfitter_cfg.c **** 			{0x05u, 0x30u},
 353:.\Generated_Source\PSoC4/cyfitter_cfg.c **** 			{0x06u, 0xA3u},
 354:.\Generated_Source\PSoC4/cyfitter_cfg.c **** 			{0x08u, 0xF3u},
 355:.\Generated_Source\PSoC4/cyfitter_cfg.c **** 			{0x09u, 0x10u},
 356:.\Generated_Source\PSoC4/cyfitter_cfg.c **** 			{0x0Au, 0x0Cu},
 357:.\Generated_Source\PSoC4/cyfitter_cfg.c **** 			{0x0Cu, 0x4Fu},
 358:.\Generated_Source\PSoC4/cyfitter_cfg.c **** 			{0x0Du, 0x70u},
 359:.\Generated_Source\PSoC4/cyfitter_cfg.c **** 			{0x0Eu, 0x90u},
 360:.\Generated_Source\PSoC4/cyfitter_cfg.c **** 			{0x0Fu, 0x0Fu},
 361:.\Generated_Source\PSoC4/cyfitter_cfg.c **** 			{0x10u, 0x03u},
 362:.\Generated_Source\PSoC4/cyfitter_cfg.c **** 			{0x11u, 0x03u},
 363:.\Generated_Source\PSoC4/cyfitter_cfg.c **** 			{0x14u, 0x02u},
 364:.\Generated_Source\PSoC4/cyfitter_cfg.c **** 			{0x15u, 0x02u},
 365:.\Generated_Source\PSoC4/cyfitter_cfg.c **** 			{0x18u, 0x04u},
 366:.\Generated_Source\PSoC4/cyfitter_cfg.c **** 			{0x19u, 0x01u},
 367:.\Generated_Source\PSoC4/cyfitter_cfg.c **** 			{0x1Eu, 0xB3u},
 368:.\Generated_Source\PSoC4/cyfitter_cfg.c **** 			{0x1Fu, 0x0Bu},
 369:.\Generated_Source\PSoC4/cyfitter_cfg.c **** 			{0x20u, 0x08u},
 370:.\Generated_Source\PSoC4/cyfitter_cfg.c **** 			{0x21u, 0x7Fu},
 371:.\Generated_Source\PSoC4/cyfitter_cfg.c **** 			{0x24u, 0x41u},
 372:.\Generated_Source\PSoC4/cyfitter_cfg.c **** 			{0x25u, 0x4Fu},
 373:.\Generated_Source\PSoC4/cyfitter_cfg.c **** 			{0x27u, 0x30u},
 374:.\Generated_Source\PSoC4/cyfitter_cfg.c **** 			{0x28u, 0x0Cu},
 375:.\Generated_Source\PSoC4/cyfitter_cfg.c **** 			{0x29u, 0x78u},
 376:.\Generated_Source\PSoC4/cyfitter_cfg.c **** 			{0x2Bu, 0x07u},
 377:.\Generated_Source\PSoC4/cyfitter_cfg.c **** 			{0x2Eu, 0x40u},
 378:.\Generated_Source\PSoC4/cyfitter_cfg.c **** 			{0x30u, 0x8Cu},
 379:.\Generated_Source\PSoC4/cyfitter_cfg.c **** 			{0x31u, 0x40u},
 380:.\Generated_Source\PSoC4/cyfitter_cfg.c **** 			{0x32u, 0x0Fu},
 381:.\Generated_Source\PSoC4/cyfitter_cfg.c **** 			{0x33u, 0x38u},
 382:.\Generated_Source\PSoC4/cyfitter_cfg.c **** 			{0x34u, 0x7Cu},
 383:.\Generated_Source\PSoC4/cyfitter_cfg.c **** 			{0x35u, 0x03u},
 384:.\Generated_Source\PSoC4/cyfitter_cfg.c **** 			{0x37u, 0x04u},
 385:.\Generated_Source\PSoC4/cyfitter_cfg.c **** 			{0x39u, 0x80u},
 386:.\Generated_Source\PSoC4/cyfitter_cfg.c **** 			{0x3Au, 0xAAu},
 387:.\Generated_Source\PSoC4/cyfitter_cfg.c **** 			{0x3Fu, 0x01u},
 388:.\Generated_Source\PSoC4/cyfitter_cfg.c **** 			{0x56u, 0x02u},
 389:.\Generated_Source\PSoC4/cyfitter_cfg.c **** 			{0x57u, 0x13u},
 390:.\Generated_Source\PSoC4/cyfitter_cfg.c **** 			{0x58u, 0x04u},
 391:.\Generated_Source\PSoC4/cyfitter_cfg.c **** 			{0x59u, 0x04u},
 392:.\Generated_Source\PSoC4/cyfitter_cfg.c **** 			{0x5Bu, 0x04u},
 393:.\Generated_Source\PSoC4/cyfitter_cfg.c **** 			{0x5Cu, 0x33u},
 394:.\Generated_Source\PSoC4/cyfitter_cfg.c **** 			{0x5Du, 0x30u},
 395:.\Generated_Source\PSoC4/cyfitter_cfg.c **** 			{0x5Fu, 0x01u},
 396:.\Generated_Source\PSoC4/cyfitter_cfg.c **** 			{0x80u, 0x02u},
 397:.\Generated_Source\PSoC4/cyfitter_cfg.c **** 			{0x81u, 0x02u},
 398:.\Generated_Source\PSoC4/cyfitter_cfg.c **** 			{0x82u, 0x45u},
 399:.\Generated_Source\PSoC4/cyfitter_cfg.c **** 			{0x87u, 0x01u},
 400:.\Generated_Source\PSoC4/cyfitter_cfg.c **** 			{0x8Bu, 0x08u},
 401:.\Generated_Source\PSoC4/cyfitter_cfg.c **** 			{0x8Cu, 0x80u},
 402:.\Generated_Source\PSoC4/cyfitter_cfg.c **** 			{0x91u, 0x02u},
 403:.\Generated_Source\PSoC4/cyfitter_cfg.c **** 			{0x94u, 0x14u},
 404:.\Generated_Source\PSoC4/cyfitter_cfg.c **** 			{0x95u, 0x04u},
ARM GAS  C:\Users\MATTHE~1\AppData\Local\Temp\cc3IpA1M.s 			page 17


 405:.\Generated_Source\PSoC4/cyfitter_cfg.c **** 			{0x96u, 0x2Au},
 406:.\Generated_Source\PSoC4/cyfitter_cfg.c **** 			{0x98u, 0x9Fu},
 407:.\Generated_Source\PSoC4/cyfitter_cfg.c **** 			{0x9Bu, 0x08u},
 408:.\Generated_Source\PSoC4/cyfitter_cfg.c **** 			{0x9Du, 0x02u},
 409:.\Generated_Source\PSoC4/cyfitter_cfg.c **** 			{0xA1u, 0x02u},
 410:.\Generated_Source\PSoC4/cyfitter_cfg.c **** 			{0xA4u, 0x9Fu},
 411:.\Generated_Source\PSoC4/cyfitter_cfg.c **** 			{0xA5u, 0x04u},
 412:.\Generated_Source\PSoC4/cyfitter_cfg.c **** 			{0xA8u, 0x09u},
 413:.\Generated_Source\PSoC4/cyfitter_cfg.c **** 			{0xA9u, 0x04u},
 414:.\Generated_Source\PSoC4/cyfitter_cfg.c **** 			{0xAAu, 0x32u},
 415:.\Generated_Source\PSoC4/cyfitter_cfg.c **** 			{0xADu, 0x04u},
 416:.\Generated_Source\PSoC4/cyfitter_cfg.c **** 			{0xB0u, 0x07u},
 417:.\Generated_Source\PSoC4/cyfitter_cfg.c **** 			{0xB1u, 0x08u},
 418:.\Generated_Source\PSoC4/cyfitter_cfg.c **** 			{0xB2u, 0x18u},
 419:.\Generated_Source\PSoC4/cyfitter_cfg.c **** 			{0xB3u, 0x02u},
 420:.\Generated_Source\PSoC4/cyfitter_cfg.c **** 			{0xB4u, 0x60u},
 421:.\Generated_Source\PSoC4/cyfitter_cfg.c **** 			{0xB5u, 0x04u},
 422:.\Generated_Source\PSoC4/cyfitter_cfg.c **** 			{0xB6u, 0x80u},
 423:.\Generated_Source\PSoC4/cyfitter_cfg.c **** 			{0xB7u, 0x01u},
 424:.\Generated_Source\PSoC4/cyfitter_cfg.c **** 			{0xB9u, 0x28u},
 425:.\Generated_Source\PSoC4/cyfitter_cfg.c **** 			{0xBEu, 0x10u},
 426:.\Generated_Source\PSoC4/cyfitter_cfg.c **** 			{0xBFu, 0x15u},
 427:.\Generated_Source\PSoC4/cyfitter_cfg.c **** 			{0xC0u, 0x61u},
 428:.\Generated_Source\PSoC4/cyfitter_cfg.c **** 			{0xC1u, 0x04u},
 429:.\Generated_Source\PSoC4/cyfitter_cfg.c **** 			{0xC2u, 0x03u},
 430:.\Generated_Source\PSoC4/cyfitter_cfg.c **** 			{0xC4u, 0x02u},
 431:.\Generated_Source\PSoC4/cyfitter_cfg.c **** 			{0xC6u, 0xC0u},
 432:.\Generated_Source\PSoC4/cyfitter_cfg.c **** 			{0xC7u, 0x0Eu},
 433:.\Generated_Source\PSoC4/cyfitter_cfg.c **** 			{0xC8u, 0x18u},
 434:.\Generated_Source\PSoC4/cyfitter_cfg.c **** 			{0xC9u, 0xFFu},
 435:.\Generated_Source\PSoC4/cyfitter_cfg.c **** 			{0xCAu, 0xFFu},
 436:.\Generated_Source\PSoC4/cyfitter_cfg.c **** 			{0xCBu, 0xFFu},
 437:.\Generated_Source\PSoC4/cyfitter_cfg.c **** 			{0xCCu, 0x62u},
 438:.\Generated_Source\PSoC4/cyfitter_cfg.c **** 			{0xCDu, 0xA0u},
 439:.\Generated_Source\PSoC4/cyfitter_cfg.c **** 			{0xCEu, 0xF0u},
 440:.\Generated_Source\PSoC4/cyfitter_cfg.c **** 			{0xCFu, 0x41u},
 441:.\Generated_Source\PSoC4/cyfitter_cfg.c **** 			{0xD0u, 0x0Cu},
 442:.\Generated_Source\PSoC4/cyfitter_cfg.c **** 			{0xD4u, 0x18u},
 443:.\Generated_Source\PSoC4/cyfitter_cfg.c **** 			{0xD6u, 0x04u},
 444:.\Generated_Source\PSoC4/cyfitter_cfg.c **** 			{0xD8u, 0x04u},
 445:.\Generated_Source\PSoC4/cyfitter_cfg.c **** 			{0xD9u, 0x04u},
 446:.\Generated_Source\PSoC4/cyfitter_cfg.c **** 			{0xDAu, 0x04u},
 447:.\Generated_Source\PSoC4/cyfitter_cfg.c **** 			{0xDBu, 0x04u},
 448:.\Generated_Source\PSoC4/cyfitter_cfg.c **** 			{0xDCu, 0x33u},
 449:.\Generated_Source\PSoC4/cyfitter_cfg.c **** 			{0xDDu, 0x33u},
 450:.\Generated_Source\PSoC4/cyfitter_cfg.c **** 			{0xDFu, 0x01u},
 451:.\Generated_Source\PSoC4/cyfitter_cfg.c **** 			{0xE6u, 0x40u},
 452:.\Generated_Source\PSoC4/cyfitter_cfg.c **** 			{0xE7u, 0x02u},
 453:.\Generated_Source\PSoC4/cyfitter_cfg.c **** 			{0xE9u, 0x10u},
 454:.\Generated_Source\PSoC4/cyfitter_cfg.c **** 			{0xEAu, 0x30u},
 455:.\Generated_Source\PSoC4/cyfitter_cfg.c **** 			{0xEBu, 0x10u},
 456:.\Generated_Source\PSoC4/cyfitter_cfg.c **** 			{0xEDu, 0x10u},
 457:.\Generated_Source\PSoC4/cyfitter_cfg.c **** 			{0xEEu, 0x10u},
 458:.\Generated_Source\PSoC4/cyfitter_cfg.c **** 			{0xEFu, 0x12u},
 459:.\Generated_Source\PSoC4/cyfitter_cfg.c **** 			{0x00u, 0x41u},
 460:.\Generated_Source\PSoC4/cyfitter_cfg.c **** 			{0x02u, 0x04u},
 461:.\Generated_Source\PSoC4/cyfitter_cfg.c **** 			{0x03u, 0x20u},
ARM GAS  C:\Users\MATTHE~1\AppData\Local\Temp\cc3IpA1M.s 			page 18


 462:.\Generated_Source\PSoC4/cyfitter_cfg.c **** 			{0x05u, 0x01u},
 463:.\Generated_Source\PSoC4/cyfitter_cfg.c **** 			{0x07u, 0x01u},
 464:.\Generated_Source\PSoC4/cyfitter_cfg.c **** 			{0x09u, 0x88u},
 465:.\Generated_Source\PSoC4/cyfitter_cfg.c **** 			{0x0Au, 0x40u},
 466:.\Generated_Source\PSoC4/cyfitter_cfg.c **** 			{0x0Bu, 0x04u},
 467:.\Generated_Source\PSoC4/cyfitter_cfg.c **** 			{0x0Du, 0x08u},
 468:.\Generated_Source\PSoC4/cyfitter_cfg.c **** 			{0x0Eu, 0x04u},
 469:.\Generated_Source\PSoC4/cyfitter_cfg.c **** 			{0x10u, 0x80u},
 470:.\Generated_Source\PSoC4/cyfitter_cfg.c **** 			{0x11u, 0x88u},
 471:.\Generated_Source\PSoC4/cyfitter_cfg.c **** 			{0x13u, 0x10u},
 472:.\Generated_Source\PSoC4/cyfitter_cfg.c **** 			{0x17u, 0x18u},
 473:.\Generated_Source\PSoC4/cyfitter_cfg.c **** 			{0x18u, 0x41u},
 474:.\Generated_Source\PSoC4/cyfitter_cfg.c **** 			{0x19u, 0x14u},
 475:.\Generated_Source\PSoC4/cyfitter_cfg.c **** 			{0x1Bu, 0x60u},
 476:.\Generated_Source\PSoC4/cyfitter_cfg.c **** 			{0x1Du, 0xA9u},
 477:.\Generated_Source\PSoC4/cyfitter_cfg.c **** 			{0x1Eu, 0x40u},
 478:.\Generated_Source\PSoC4/cyfitter_cfg.c **** 			{0x20u, 0x08u},
 479:.\Generated_Source\PSoC4/cyfitter_cfg.c **** 			{0x22u, 0x01u},
 480:.\Generated_Source\PSoC4/cyfitter_cfg.c **** 			{0x23u, 0x21u},
 481:.\Generated_Source\PSoC4/cyfitter_cfg.c **** 			{0x24u, 0x04u},
 482:.\Generated_Source\PSoC4/cyfitter_cfg.c **** 			{0x25u, 0x54u},
 483:.\Generated_Source\PSoC4/cyfitter_cfg.c **** 			{0x26u, 0x12u},
 484:.\Generated_Source\PSoC4/cyfitter_cfg.c **** 			{0x27u, 0x10u},
 485:.\Generated_Source\PSoC4/cyfitter_cfg.c **** 			{0x28u, 0x40u},
 486:.\Generated_Source\PSoC4/cyfitter_cfg.c **** 			{0x29u, 0x14u},
 487:.\Generated_Source\PSoC4/cyfitter_cfg.c **** 			{0x2Au, 0x04u},
 488:.\Generated_Source\PSoC4/cyfitter_cfg.c **** 			{0x2Bu, 0x50u},
 489:.\Generated_Source\PSoC4/cyfitter_cfg.c **** 			{0x2Cu, 0x20u},
 490:.\Generated_Source\PSoC4/cyfitter_cfg.c **** 			{0x2Du, 0x01u},
 491:.\Generated_Source\PSoC4/cyfitter_cfg.c **** 			{0x2Fu, 0x09u},
 492:.\Generated_Source\PSoC4/cyfitter_cfg.c **** 			{0x31u, 0x89u},
 493:.\Generated_Source\PSoC4/cyfitter_cfg.c **** 			{0x33u, 0x10u},
 494:.\Generated_Source\PSoC4/cyfitter_cfg.c **** 			{0x34u, 0x10u},
 495:.\Generated_Source\PSoC4/cyfitter_cfg.c **** 			{0x36u, 0x81u},
 496:.\Generated_Source\PSoC4/cyfitter_cfg.c **** 			{0x37u, 0x24u},
 497:.\Generated_Source\PSoC4/cyfitter_cfg.c **** 			{0x38u, 0x68u},
 498:.\Generated_Source\PSoC4/cyfitter_cfg.c **** 			{0x3Au, 0x02u},
 499:.\Generated_Source\PSoC4/cyfitter_cfg.c **** 			{0x3Cu, 0x22u},
 500:.\Generated_Source\PSoC4/cyfitter_cfg.c **** 			{0x3Du, 0x08u},
 501:.\Generated_Source\PSoC4/cyfitter_cfg.c **** 			{0x44u, 0x50u},
 502:.\Generated_Source\PSoC4/cyfitter_cfg.c **** 			{0x45u, 0xA0u},
 503:.\Generated_Source\PSoC4/cyfitter_cfg.c **** 			{0x49u, 0x80u},
 504:.\Generated_Source\PSoC4/cyfitter_cfg.c **** 			{0x4Au, 0x02u},
 505:.\Generated_Source\PSoC4/cyfitter_cfg.c **** 			{0x4Fu, 0x20u},
 506:.\Generated_Source\PSoC4/cyfitter_cfg.c **** 			{0x54u, 0x10u},
 507:.\Generated_Source\PSoC4/cyfitter_cfg.c **** 			{0x56u, 0x08u},
 508:.\Generated_Source\PSoC4/cyfitter_cfg.c **** 			{0x5Au, 0x02u},
 509:.\Generated_Source\PSoC4/cyfitter_cfg.c **** 			{0x5Fu, 0x02u},
 510:.\Generated_Source\PSoC4/cyfitter_cfg.c **** 			{0x65u, 0x80u},
 511:.\Generated_Source\PSoC4/cyfitter_cfg.c **** 			{0x66u, 0x10u},
 512:.\Generated_Source\PSoC4/cyfitter_cfg.c **** 			{0x67u, 0x40u},
 513:.\Generated_Source\PSoC4/cyfitter_cfg.c **** 			{0x6Au, 0x04u},
 514:.\Generated_Source\PSoC4/cyfitter_cfg.c **** 			{0x6Bu, 0x09u},
 515:.\Generated_Source\PSoC4/cyfitter_cfg.c **** 			{0x70u, 0x94u},
 516:.\Generated_Source\PSoC4/cyfitter_cfg.c **** 			{0x72u, 0x02u},
 517:.\Generated_Source\PSoC4/cyfitter_cfg.c **** 			{0x73u, 0x14u},
 518:.\Generated_Source\PSoC4/cyfitter_cfg.c **** 			{0x87u, 0x40u},
ARM GAS  C:\Users\MATTHE~1\AppData\Local\Temp\cc3IpA1M.s 			page 19


 519:.\Generated_Source\PSoC4/cyfitter_cfg.c **** 			{0x88u, 0x05u},
 520:.\Generated_Source\PSoC4/cyfitter_cfg.c **** 			{0x8Bu, 0x02u},
 521:.\Generated_Source\PSoC4/cyfitter_cfg.c **** 			{0xC0u, 0x9Fu},
 522:.\Generated_Source\PSoC4/cyfitter_cfg.c **** 			{0xC2u, 0x6Fu},
 523:.\Generated_Source\PSoC4/cyfitter_cfg.c **** 			{0xC4u, 0x6Fu},
 524:.\Generated_Source\PSoC4/cyfitter_cfg.c **** 			{0xCAu, 0xF7u},
 525:.\Generated_Source\PSoC4/cyfitter_cfg.c **** 			{0xCCu, 0xFFu},
 526:.\Generated_Source\PSoC4/cyfitter_cfg.c **** 			{0xCEu, 0xEFu},
 527:.\Generated_Source\PSoC4/cyfitter_cfg.c **** 			{0xD0u, 0xF0u},
 528:.\Generated_Source\PSoC4/cyfitter_cfg.c **** 			{0xD2u, 0x20u},
 529:.\Generated_Source\PSoC4/cyfitter_cfg.c **** 			{0xD6u, 0x81u},
 530:.\Generated_Source\PSoC4/cyfitter_cfg.c **** 			{0xD8u, 0xB0u},
 531:.\Generated_Source\PSoC4/cyfitter_cfg.c **** 			{0x03u, 0x02u},
 532:.\Generated_Source\PSoC4/cyfitter_cfg.c **** 			{0x07u, 0x04u},
 533:.\Generated_Source\PSoC4/cyfitter_cfg.c **** 			{0x08u, 0x02u},
 534:.\Generated_Source\PSoC4/cyfitter_cfg.c **** 			{0x0Au, 0x45u},
 535:.\Generated_Source\PSoC4/cyfitter_cfg.c **** 			{0x0Bu, 0x01u},
 536:.\Generated_Source\PSoC4/cyfitter_cfg.c **** 			{0x14u, 0x09u},
 537:.\Generated_Source\PSoC4/cyfitter_cfg.c **** 			{0x16u, 0x32u},
 538:.\Generated_Source\PSoC4/cyfitter_cfg.c **** 			{0x17u, 0x04u},
 539:.\Generated_Source\PSoC4/cyfitter_cfg.c **** 			{0x18u, 0x14u},
 540:.\Generated_Source\PSoC4/cyfitter_cfg.c **** 			{0x1Au, 0x2Au},
 541:.\Generated_Source\PSoC4/cyfitter_cfg.c **** 			{0x1Cu, 0x80u},
 542:.\Generated_Source\PSoC4/cyfitter_cfg.c **** 			{0x24u, 0x9Fu},
 543:.\Generated_Source\PSoC4/cyfitter_cfg.c **** 			{0x27u, 0x02u},
 544:.\Generated_Source\PSoC4/cyfitter_cfg.c **** 			{0x28u, 0x9Fu},
 545:.\Generated_Source\PSoC4/cyfitter_cfg.c **** 			{0x2Bu, 0x08u},
 546:.\Generated_Source\PSoC4/cyfitter_cfg.c **** 			{0x2Fu, 0x08u},
 547:.\Generated_Source\PSoC4/cyfitter_cfg.c **** 			{0x30u, 0x80u},
 548:.\Generated_Source\PSoC4/cyfitter_cfg.c **** 			{0x31u, 0x01u},
 549:.\Generated_Source\PSoC4/cyfitter_cfg.c **** 			{0x32u, 0x07u},
 550:.\Generated_Source\PSoC4/cyfitter_cfg.c **** 			{0x33u, 0x08u},
 551:.\Generated_Source\PSoC4/cyfitter_cfg.c **** 			{0x34u, 0x18u},
 552:.\Generated_Source\PSoC4/cyfitter_cfg.c **** 			{0x35u, 0x02u},
 553:.\Generated_Source\PSoC4/cyfitter_cfg.c **** 			{0x36u, 0x60u},
 554:.\Generated_Source\PSoC4/cyfitter_cfg.c **** 			{0x37u, 0x04u},
 555:.\Generated_Source\PSoC4/cyfitter_cfg.c **** 			{0x3Eu, 0x40u},
 556:.\Generated_Source\PSoC4/cyfitter_cfg.c **** 			{0x3Fu, 0x54u},
 557:.\Generated_Source\PSoC4/cyfitter_cfg.c **** 			{0x40u, 0x52u},
 558:.\Generated_Source\PSoC4/cyfitter_cfg.c **** 			{0x41u, 0x04u},
 559:.\Generated_Source\PSoC4/cyfitter_cfg.c **** 			{0x42u, 0x06u},
 560:.\Generated_Source\PSoC4/cyfitter_cfg.c **** 			{0x44u, 0x01u},
 561:.\Generated_Source\PSoC4/cyfitter_cfg.c **** 			{0x45u, 0x0Cu},
 562:.\Generated_Source\PSoC4/cyfitter_cfg.c **** 			{0x47u, 0xE0u},
 563:.\Generated_Source\PSoC4/cyfitter_cfg.c **** 			{0x48u, 0x21u},
 564:.\Generated_Source\PSoC4/cyfitter_cfg.c **** 			{0x49u, 0xFFu},
 565:.\Generated_Source\PSoC4/cyfitter_cfg.c **** 			{0x4Au, 0xFFu},
 566:.\Generated_Source\PSoC4/cyfitter_cfg.c **** 			{0x4Bu, 0xFFu},
 567:.\Generated_Source\PSoC4/cyfitter_cfg.c **** 			{0x4Cu, 0x62u},
 568:.\Generated_Source\PSoC4/cyfitter_cfg.c **** 			{0x4Du, 0xA0u},
 569:.\Generated_Source\PSoC4/cyfitter_cfg.c **** 			{0x4Eu, 0xF0u},
 570:.\Generated_Source\PSoC4/cyfitter_cfg.c **** 			{0x4Fu, 0x41u},
 571:.\Generated_Source\PSoC4/cyfitter_cfg.c **** 			{0x50u, 0x0Cu},
 572:.\Generated_Source\PSoC4/cyfitter_cfg.c **** 			{0x54u, 0x18u},
 573:.\Generated_Source\PSoC4/cyfitter_cfg.c **** 			{0x56u, 0x04u},
 574:.\Generated_Source\PSoC4/cyfitter_cfg.c **** 			{0x58u, 0x04u},
 575:.\Generated_Source\PSoC4/cyfitter_cfg.c **** 			{0x59u, 0x04u},
ARM GAS  C:\Users\MATTHE~1\AppData\Local\Temp\cc3IpA1M.s 			page 20


 576:.\Generated_Source\PSoC4/cyfitter_cfg.c **** 			{0x5Au, 0x04u},
 577:.\Generated_Source\PSoC4/cyfitter_cfg.c **** 			{0x5Bu, 0x04u},
 578:.\Generated_Source\PSoC4/cyfitter_cfg.c **** 			{0x5Cu, 0x11u},
 579:.\Generated_Source\PSoC4/cyfitter_cfg.c **** 			{0x5Du, 0x11u},
 580:.\Generated_Source\PSoC4/cyfitter_cfg.c **** 			{0x5Fu, 0x01u},
 581:.\Generated_Source\PSoC4/cyfitter_cfg.c **** 			{0x66u, 0x40u},
 582:.\Generated_Source\PSoC4/cyfitter_cfg.c **** 			{0x67u, 0x02u},
 583:.\Generated_Source\PSoC4/cyfitter_cfg.c **** 			{0x69u, 0x10u},
 584:.\Generated_Source\PSoC4/cyfitter_cfg.c **** 			{0x6Au, 0x30u},
 585:.\Generated_Source\PSoC4/cyfitter_cfg.c **** 			{0x6Bu, 0x10u},
 586:.\Generated_Source\PSoC4/cyfitter_cfg.c **** 			{0x6Du, 0x10u},
 587:.\Generated_Source\PSoC4/cyfitter_cfg.c **** 			{0x6Eu, 0x10u},
 588:.\Generated_Source\PSoC4/cyfitter_cfg.c **** 			{0x6Fu, 0x12u},
 589:.\Generated_Source\PSoC4/cyfitter_cfg.c **** 			{0x81u, 0x20u},
 590:.\Generated_Source\PSoC4/cyfitter_cfg.c **** 			{0x82u, 0x10u},
 591:.\Generated_Source\PSoC4/cyfitter_cfg.c **** 			{0x84u, 0x1Cu},
 592:.\Generated_Source\PSoC4/cyfitter_cfg.c **** 			{0x85u, 0x01u},
 593:.\Generated_Source\PSoC4/cyfitter_cfg.c **** 			{0x86u, 0xC3u},
 594:.\Generated_Source\PSoC4/cyfitter_cfg.c **** 			{0x89u, 0x30u},
 595:.\Generated_Source\PSoC4/cyfitter_cfg.c **** 			{0x8Au, 0xE3u},
 596:.\Generated_Source\PSoC4/cyfitter_cfg.c **** 			{0x8Cu, 0xF3u},
 597:.\Generated_Source\PSoC4/cyfitter_cfg.c **** 			{0x8Du, 0x70u},
 598:.\Generated_Source\PSoC4/cyfitter_cfg.c **** 			{0x8Eu, 0x0Cu},
 599:.\Generated_Source\PSoC4/cyfitter_cfg.c **** 			{0x8Fu, 0x0Fu},
 600:.\Generated_Source\PSoC4/cyfitter_cfg.c **** 			{0x90u, 0x1Fu},
 601:.\Generated_Source\PSoC4/cyfitter_cfg.c **** 			{0x92u, 0xA0u},
 602:.\Generated_Source\PSoC4/cyfitter_cfg.c **** 			{0x93u, 0x0Bu},
 603:.\Generated_Source\PSoC4/cyfitter_cfg.c **** 			{0x94u, 0x0Cu},
 604:.\Generated_Source\PSoC4/cyfitter_cfg.c **** 			{0x95u, 0x7Fu},
 605:.\Generated_Source\PSoC4/cyfitter_cfg.c **** 			{0x98u, 0x02u},
 606:.\Generated_Source\PSoC4/cyfitter_cfg.c **** 			{0x99u, 0x10u},
 607:.\Generated_Source\PSoC4/cyfitter_cfg.c **** 			{0x9Cu, 0xFFu},
 608:.\Generated_Source\PSoC4/cyfitter_cfg.c **** 			{0xA0u, 0x08u},
 609:.\Generated_Source\PSoC4/cyfitter_cfg.c **** 			{0xA1u, 0x4Fu},
 610:.\Generated_Source\PSoC4/cyfitter_cfg.c **** 			{0xA3u, 0x30u},
 611:.\Generated_Source\PSoC4/cyfitter_cfg.c **** 			{0xA4u, 0x04u},
 612:.\Generated_Source\PSoC4/cyfitter_cfg.c **** 			{0xA5u, 0x78u},
 613:.\Generated_Source\PSoC4/cyfitter_cfg.c **** 			{0xA7u, 0x07u},
 614:.\Generated_Source\PSoC4/cyfitter_cfg.c **** 			{0xA8u, 0x11u},
 615:.\Generated_Source\PSoC4/cyfitter_cfg.c **** 			{0xA9u, 0x02u},
 616:.\Generated_Source\PSoC4/cyfitter_cfg.c **** 			{0xACu, 0x03u},
 617:.\Generated_Source\PSoC4/cyfitter_cfg.c **** 			{0xADu, 0x03u},
 618:.\Generated_Source\PSoC4/cyfitter_cfg.c **** 			{0xB0u, 0x8Cu},
 619:.\Generated_Source\PSoC4/cyfitter_cfg.c **** 			{0xB1u, 0x40u},
 620:.\Generated_Source\PSoC4/cyfitter_cfg.c **** 			{0xB3u, 0x38u},
 621:.\Generated_Source\PSoC4/cyfitter_cfg.c **** 			{0xB4u, 0x7Cu},
 622:.\Generated_Source\PSoC4/cyfitter_cfg.c **** 			{0xB5u, 0x04u},
 623:.\Generated_Source\PSoC4/cyfitter_cfg.c **** 			{0xB6u, 0x0Fu},
 624:.\Generated_Source\PSoC4/cyfitter_cfg.c **** 			{0xB7u, 0x03u},
 625:.\Generated_Source\PSoC4/cyfitter_cfg.c **** 			{0xB9u, 0x20u},
 626:.\Generated_Source\PSoC4/cyfitter_cfg.c **** 			{0xBAu, 0xAAu},
 627:.\Generated_Source\PSoC4/cyfitter_cfg.c **** 			{0xBFu, 0x01u},
 628:.\Generated_Source\PSoC4/cyfitter_cfg.c **** 			{0xD6u, 0x02u},
 629:.\Generated_Source\PSoC4/cyfitter_cfg.c **** 			{0xD7u, 0x13u},
 630:.\Generated_Source\PSoC4/cyfitter_cfg.c **** 			{0xD8u, 0x04u},
 631:.\Generated_Source\PSoC4/cyfitter_cfg.c **** 			{0xD9u, 0x04u},
 632:.\Generated_Source\PSoC4/cyfitter_cfg.c **** 			{0xDBu, 0x04u},
ARM GAS  C:\Users\MATTHE~1\AppData\Local\Temp\cc3IpA1M.s 			page 21


 633:.\Generated_Source\PSoC4/cyfitter_cfg.c **** 			{0xDCu, 0x11u},
 634:.\Generated_Source\PSoC4/cyfitter_cfg.c **** 			{0xDDu, 0x10u},
 635:.\Generated_Source\PSoC4/cyfitter_cfg.c **** 			{0xDFu, 0x01u},
 636:.\Generated_Source\PSoC4/cyfitter_cfg.c **** 			{0x01u, 0x80u},
 637:.\Generated_Source\PSoC4/cyfitter_cfg.c **** 			{0x02u, 0x04u},
 638:.\Generated_Source\PSoC4/cyfitter_cfg.c **** 			{0x03u, 0x60u},
 639:.\Generated_Source\PSoC4/cyfitter_cfg.c **** 			{0x04u, 0x10u},
 640:.\Generated_Source\PSoC4/cyfitter_cfg.c **** 			{0x08u, 0x40u},
 641:.\Generated_Source\PSoC4/cyfitter_cfg.c **** 			{0x09u, 0x28u},
 642:.\Generated_Source\PSoC4/cyfitter_cfg.c **** 			{0x0Au, 0x40u},
 643:.\Generated_Source\PSoC4/cyfitter_cfg.c **** 			{0x0Du, 0x60u},
 644:.\Generated_Source\PSoC4/cyfitter_cfg.c **** 			{0x0Eu, 0x20u},
 645:.\Generated_Source\PSoC4/cyfitter_cfg.c **** 			{0x10u, 0xA1u},
 646:.\Generated_Source\PSoC4/cyfitter_cfg.c **** 			{0x11u, 0x20u},
 647:.\Generated_Source\PSoC4/cyfitter_cfg.c **** 			{0x17u, 0x28u},
 648:.\Generated_Source\PSoC4/cyfitter_cfg.c **** 			{0x18u, 0x40u},
 649:.\Generated_Source\PSoC4/cyfitter_cfg.c **** 			{0x19u, 0x84u},
 650:.\Generated_Source\PSoC4/cyfitter_cfg.c **** 			{0x1Au, 0x40u},
 651:.\Generated_Source\PSoC4/cyfitter_cfg.c **** 			{0x1Bu, 0xA0u},
 652:.\Generated_Source\PSoC4/cyfitter_cfg.c **** 			{0x1Cu, 0x10u},
 653:.\Generated_Source\PSoC4/cyfitter_cfg.c **** 			{0x1Du, 0xB2u},
 654:.\Generated_Source\PSoC4/cyfitter_cfg.c **** 			{0x20u, 0x01u},
 655:.\Generated_Source\PSoC4/cyfitter_cfg.c **** 			{0x22u, 0x19u},
 656:.\Generated_Source\PSoC4/cyfitter_cfg.c **** 			{0x25u, 0x04u},
 657:.\Generated_Source\PSoC4/cyfitter_cfg.c **** 			{0x27u, 0x45u},
 658:.\Generated_Source\PSoC4/cyfitter_cfg.c **** 			{0x28u, 0x03u},
 659:.\Generated_Source\PSoC4/cyfitter_cfg.c **** 			{0x29u, 0x10u},
 660:.\Generated_Source\PSoC4/cyfitter_cfg.c **** 			{0x2Bu, 0xA0u},
 661:.\Generated_Source\PSoC4/cyfitter_cfg.c **** 			{0x2Du, 0x20u},
 662:.\Generated_Source\PSoC4/cyfitter_cfg.c **** 			{0x2Eu, 0x08u},
 663:.\Generated_Source\PSoC4/cyfitter_cfg.c **** 			{0x2Fu, 0x02u},
 664:.\Generated_Source\PSoC4/cyfitter_cfg.c **** 			{0x30u, 0x24u},
 665:.\Generated_Source\PSoC4/cyfitter_cfg.c **** 			{0x31u, 0x06u},
 666:.\Generated_Source\PSoC4/cyfitter_cfg.c **** 			{0x36u, 0x08u},
 667:.\Generated_Source\PSoC4/cyfitter_cfg.c **** 			{0x38u, 0x44u},
 668:.\Generated_Source\PSoC4/cyfitter_cfg.c **** 			{0x3Au, 0x02u},
 669:.\Generated_Source\PSoC4/cyfitter_cfg.c **** 			{0x3Bu, 0x10u},
 670:.\Generated_Source\PSoC4/cyfitter_cfg.c **** 			{0x3Du, 0x20u},
 671:.\Generated_Source\PSoC4/cyfitter_cfg.c **** 			{0x3Fu, 0x05u},
 672:.\Generated_Source\PSoC4/cyfitter_cfg.c **** 			{0x42u, 0x80u},
 673:.\Generated_Source\PSoC4/cyfitter_cfg.c **** 			{0x43u, 0x01u},
 674:.\Generated_Source\PSoC4/cyfitter_cfg.c **** 			{0x44u, 0x40u},
 675:.\Generated_Source\PSoC4/cyfitter_cfg.c **** 			{0x45u, 0x80u},
 676:.\Generated_Source\PSoC4/cyfitter_cfg.c **** 			{0x46u, 0x54u},
 677:.\Generated_Source\PSoC4/cyfitter_cfg.c **** 			{0x47u, 0x04u},
 678:.\Generated_Source\PSoC4/cyfitter_cfg.c **** 			{0x4Du, 0x80u},
 679:.\Generated_Source\PSoC4/cyfitter_cfg.c **** 			{0x4Eu, 0x08u},
 680:.\Generated_Source\PSoC4/cyfitter_cfg.c **** 			{0x4Fu, 0x04u},
 681:.\Generated_Source\PSoC4/cyfitter_cfg.c **** 			{0x57u, 0x02u},
 682:.\Generated_Source\PSoC4/cyfitter_cfg.c **** 			{0x59u, 0x20u},
 683:.\Generated_Source\PSoC4/cyfitter_cfg.c **** 			{0x5Au, 0x22u},
 684:.\Generated_Source\PSoC4/cyfitter_cfg.c **** 			{0x5Cu, 0x01u},
 685:.\Generated_Source\PSoC4/cyfitter_cfg.c **** 			{0x64u, 0x08u},
 686:.\Generated_Source\PSoC4/cyfitter_cfg.c **** 			{0x66u, 0x80u},
 687:.\Generated_Source\PSoC4/cyfitter_cfg.c **** 			{0x67u, 0x80u},
 688:.\Generated_Source\PSoC4/cyfitter_cfg.c **** 			{0x69u, 0x80u},
 689:.\Generated_Source\PSoC4/cyfitter_cfg.c **** 			{0x6Bu, 0x28u},
ARM GAS  C:\Users\MATTHE~1\AppData\Local\Temp\cc3IpA1M.s 			page 22


 690:.\Generated_Source\PSoC4/cyfitter_cfg.c **** 			{0x70u, 0xA0u},
 691:.\Generated_Source\PSoC4/cyfitter_cfg.c **** 			{0x71u, 0x08u},
 692:.\Generated_Source\PSoC4/cyfitter_cfg.c **** 			{0x72u, 0x02u},
 693:.\Generated_Source\PSoC4/cyfitter_cfg.c **** 			{0x73u, 0x10u},
 694:.\Generated_Source\PSoC4/cyfitter_cfg.c **** 			{0x7Cu, 0x08u},
 695:.\Generated_Source\PSoC4/cyfitter_cfg.c **** 			{0x7Du, 0x08u},
 696:.\Generated_Source\PSoC4/cyfitter_cfg.c **** 			{0x81u, 0x02u},
 697:.\Generated_Source\PSoC4/cyfitter_cfg.c **** 			{0x82u, 0x04u},
 698:.\Generated_Source\PSoC4/cyfitter_cfg.c **** 			{0x87u, 0x40u},
 699:.\Generated_Source\PSoC4/cyfitter_cfg.c **** 			{0x88u, 0x04u},
 700:.\Generated_Source\PSoC4/cyfitter_cfg.c **** 			{0x8Au, 0x40u},
 701:.\Generated_Source\PSoC4/cyfitter_cfg.c **** 			{0x8Cu, 0x12u},
 702:.\Generated_Source\PSoC4/cyfitter_cfg.c **** 			{0x90u, 0x04u},
 703:.\Generated_Source\PSoC4/cyfitter_cfg.c **** 			{0x93u, 0x01u},
 704:.\Generated_Source\PSoC4/cyfitter_cfg.c **** 			{0x9Au, 0x08u},
 705:.\Generated_Source\PSoC4/cyfitter_cfg.c **** 			{0x9Eu, 0x10u},
 706:.\Generated_Source\PSoC4/cyfitter_cfg.c **** 			{0xA1u, 0x10u},
 707:.\Generated_Source\PSoC4/cyfitter_cfg.c **** 			{0xA2u, 0x10u},
 708:.\Generated_Source\PSoC4/cyfitter_cfg.c **** 			{0xB0u, 0x20u},
 709:.\Generated_Source\PSoC4/cyfitter_cfg.c **** 			{0xB1u, 0x01u},
 710:.\Generated_Source\PSoC4/cyfitter_cfg.c **** 			{0xB2u, 0x80u},
 711:.\Generated_Source\PSoC4/cyfitter_cfg.c **** 			{0xB3u, 0x08u},
 712:.\Generated_Source\PSoC4/cyfitter_cfg.c **** 			{0xB6u, 0x01u},
 713:.\Generated_Source\PSoC4/cyfitter_cfg.c **** 			{0xB7u, 0x05u},
 714:.\Generated_Source\PSoC4/cyfitter_cfg.c **** 			{0xC0u, 0x4Fu},
 715:.\Generated_Source\PSoC4/cyfitter_cfg.c **** 			{0xC2u, 0xEFu},
 716:.\Generated_Source\PSoC4/cyfitter_cfg.c **** 			{0xC4u, 0x6Fu},
 717:.\Generated_Source\PSoC4/cyfitter_cfg.c **** 			{0xCAu, 0x7Fu},
 718:.\Generated_Source\PSoC4/cyfitter_cfg.c **** 			{0xCCu, 0x47u},
 719:.\Generated_Source\PSoC4/cyfitter_cfg.c **** 			{0xCEu, 0xEFu},
 720:.\Generated_Source\PSoC4/cyfitter_cfg.c **** 			{0xD0u, 0xB0u},
 721:.\Generated_Source\PSoC4/cyfitter_cfg.c **** 			{0xD2u, 0x30u},
 722:.\Generated_Source\PSoC4/cyfitter_cfg.c **** 			{0xD6u, 0x81u},
 723:.\Generated_Source\PSoC4/cyfitter_cfg.c **** 			{0xD8u, 0xB0u},
 724:.\Generated_Source\PSoC4/cyfitter_cfg.c **** 			{0x6Fu, 0x02u},
 725:.\Generated_Source\PSoC4/cyfitter_cfg.c **** 			{0x73u, 0x02u},
 726:.\Generated_Source\PSoC4/cyfitter_cfg.c **** 			{0x87u, 0x02u},
 727:.\Generated_Source\PSoC4/cyfitter_cfg.c **** 			{0xDAu, 0x80u},
 728:.\Generated_Source\PSoC4/cyfitter_cfg.c **** 			{0xDCu, 0x20u},
 729:.\Generated_Source\PSoC4/cyfitter_cfg.c **** 			{0xE6u, 0x40u},
 730:.\Generated_Source\PSoC4/cyfitter_cfg.c **** 			{0x87u, 0x02u},
 731:.\Generated_Source\PSoC4/cyfitter_cfg.c **** 			{0xA7u, 0x02u},
 732:.\Generated_Source\PSoC4/cyfitter_cfg.c **** 			{0xE2u, 0x10u},
 733:.\Generated_Source\PSoC4/cyfitter_cfg.c **** 			{0x00u, 0x88u},
 734:.\Generated_Source\PSoC4/cyfitter_cfg.c **** 			{0x04u, 0x82u},
 735:.\Generated_Source\PSoC4/cyfitter_cfg.c **** 			{0x08u, 0x20u},
 736:.\Generated_Source\PSoC4/cyfitter_cfg.c **** 			{0x09u, 0x01u},
 737:.\Generated_Source\PSoC4/cyfitter_cfg.c **** 			{0x0Cu, 0x42u},
 738:.\Generated_Source\PSoC4/cyfitter_cfg.c **** 			{0x88u, 0x40u},
 739:.\Generated_Source\PSoC4/cyfitter_cfg.c **** 			{0xC0u, 0x0Fu},
 740:.\Generated_Source\PSoC4/cyfitter_cfg.c **** 			{0xC2u, 0x0Fu},
 741:.\Generated_Source\PSoC4/cyfitter_cfg.c **** 			{0xE2u, 0x01u},
 742:.\Generated_Source\PSoC4/cyfitter_cfg.c **** 			{0xB0u, 0x66u},
 743:.\Generated_Source\PSoC4/cyfitter_cfg.c **** 			{0xB4u, 0x41u},
 744:.\Generated_Source\PSoC4/cyfitter_cfg.c **** 			{0xB5u, 0x01u},
 745:.\Generated_Source\PSoC4/cyfitter_cfg.c **** 			{0xEAu, 0x0Fu},
 746:.\Generated_Source\PSoC4/cyfitter_cfg.c **** 			{0xEEu, 0x0Du},
ARM GAS  C:\Users\MATTHE~1\AppData\Local\Temp\cc3IpA1M.s 			page 23


 747:.\Generated_Source\PSoC4/cyfitter_cfg.c **** 			{0x10u, 0x0Au},
 748:.\Generated_Source\PSoC4/cyfitter_cfg.c **** 			{0x11u, 0x01u},
 749:.\Generated_Source\PSoC4/cyfitter_cfg.c **** 		};
 750:.\Generated_Source\PSoC4/cyfitter_cfg.c **** 
 751:.\Generated_Source\PSoC4/cyfitter_cfg.c **** 
 752:.\Generated_Source\PSoC4/cyfitter_cfg.c **** 
 753:.\Generated_Source\PSoC4/cyfitter_cfg.c **** 		CYPACKED typedef struct {
 754:.\Generated_Source\PSoC4/cyfitter_cfg.c **** 			void CYFAR *address;
 755:.\Generated_Source\PSoC4/cyfitter_cfg.c **** 			uint16 size;
 756:.\Generated_Source\PSoC4/cyfitter_cfg.c **** 		} CYPACKED_ATTR cfg_memset_t;
 757:.\Generated_Source\PSoC4/cyfitter_cfg.c **** 
 758:.\Generated_Source\PSoC4/cyfitter_cfg.c **** 		static const cfg_memset_t CYCODE cfg_memset_list [] = {
 759:.\Generated_Source\PSoC4/cyfitter_cfg.c **** 			/* address, size */
 760:.\Generated_Source\PSoC4/cyfitter_cfg.c **** 			{(void CYFAR *)(CYDEV_UDB_P0_U0_BASE), 1024u},
 761:.\Generated_Source\PSoC4/cyfitter_cfg.c **** 			{(void CYFAR *)(CYDEV_UDB_DSI0_BASE), 1024u},
 762:.\Generated_Source\PSoC4/cyfitter_cfg.c **** 		};
 763:.\Generated_Source\PSoC4/cyfitter_cfg.c **** 
 764:.\Generated_Source\PSoC4/cyfitter_cfg.c **** 		uint8 CYDATA i;
 765:.\Generated_Source\PSoC4/cyfitter_cfg.c **** 
 766:.\Generated_Source\PSoC4/cyfitter_cfg.c **** 		/* Zero out critical memory blocks before beginning configuration */
 767:.\Generated_Source\PSoC4/cyfitter_cfg.c **** 		for (i = 0u; i < (sizeof(cfg_memset_list)/sizeof(cfg_memset_list[0])); i++)
 503              		.loc 1 767 0
 504 017e FB1D     		add	r3, r7, #7
 505 0180 0022     		mov	r2, #0
 506 0182 1A70     		strb	r2, [r3]
 507 0184 23E0     		b	.L20
 508              	.L21:
 509              	.LBB4:
 768:.\Generated_Source\PSoC4/cyfitter_cfg.c **** 		{
 769:.\Generated_Source\PSoC4/cyfitter_cfg.c **** 			const cfg_memset_t CYCODE * CYDATA ms = &cfg_memset_list[i];
 510              		.loc 1 769 0 discriminator 2
 511 0186 FB1D     		add	r3, r7, #7
 512 0188 1A78     		ldrb	r2, [r3]
 513 018a 131C     		mov	r3, r2
 514 018c 5B00     		lsl	r3, r3, #1
 515 018e 9B18     		add	r3, r3, r2
 516 0190 5B00     		lsl	r3, r3, #1
 517 0192 494A     		ldr	r2, .L22+4
 518 0194 9B18     		add	r3, r3, r2
 519 0196 3B60     		str	r3, [r7]
 770:.\Generated_Source\PSoC4/cyfitter_cfg.c **** 			CYMEMZERO(ms->address, (size_t)(uint32)(ms->size));
 520              		.loc 1 770 0 discriminator 2
 521 0198 3B68     		ldr	r3, [r7]
 522 019a 1A78     		ldrb	r2, [r3]
 523 019c 5978     		ldrb	r1, [r3, #1]
 524 019e 0902     		lsl	r1, r1, #8
 525 01a0 0A43     		orr	r2, r1
 526 01a2 9978     		ldrb	r1, [r3, #2]
 527 01a4 0904     		lsl	r1, r1, #16
 528 01a6 0A43     		orr	r2, r1
 529 01a8 DB78     		ldrb	r3, [r3, #3]
 530 01aa 1B06     		lsl	r3, r3, #24
 531 01ac 1343     		orr	r3, r2
 532 01ae 1A1C     		mov	r2, r3
 533 01b0 3B68     		ldr	r3, [r7]
 534 01b2 1979     		ldrb	r1, [r3, #4]
 535 01b4 5B79     		ldrb	r3, [r3, #5]
ARM GAS  C:\Users\MATTHE~1\AppData\Local\Temp\cc3IpA1M.s 			page 24


 536 01b6 1B02     		lsl	r3, r3, #8
 537 01b8 0B43     		orr	r3, r1
 538 01ba 9BB2     		uxth	r3, r3
 539 01bc 101C     		mov	r0, r2
 540 01be 191C     		mov	r1, r3
 541 01c0 FFF7FEFF 		bl	CYMEMZERO
 542              	.LBE4:
 767:.\Generated_Source\PSoC4/cyfitter_cfg.c **** 		for (i = 0u; i < (sizeof(cfg_memset_list)/sizeof(cfg_memset_list[0])); i++)
 543              		.loc 1 767 0 discriminator 2
 544 01c4 FB1D     		add	r3, r7, #7
 545 01c6 1A78     		ldrb	r2, [r3]
 546 01c8 FB1D     		add	r3, r7, #7
 547 01ca 0132     		add	r2, r2, #1
 548 01cc 1A70     		strb	r2, [r3]
 549              	.L20:
 767:.\Generated_Source\PSoC4/cyfitter_cfg.c **** 		for (i = 0u; i < (sizeof(cfg_memset_list)/sizeof(cfg_memset_list[0])); i++)
 550              		.loc 1 767 0 is_stmt 0 discriminator 1
 551 01ce FB1D     		add	r3, r7, #7
 552 01d0 1B78     		ldrb	r3, [r3]
 553 01d2 012B     		cmp	r3, #1
 554 01d4 D7D9     		bls	.L21
 771:.\Generated_Source\PSoC4/cyfitter_cfg.c **** 		}
 772:.\Generated_Source\PSoC4/cyfitter_cfg.c **** 
 773:.\Generated_Source\PSoC4/cyfitter_cfg.c **** 		cfg_write_bytes32(cy_cfg_addr_table, cy_cfg_data_table);
 555              		.loc 1 773 0 is_stmt 1
 556 01d6 394A     		ldr	r2, .L22+8
 557 01d8 394B     		ldr	r3, .L22+12
 558 01da 101C     		mov	r0, r2
 559 01dc 191C     		mov	r1, r3
 560 01de FFF7FEFF 		bl	cfg_write_bytes32
 774:.\Generated_Source\PSoC4/cyfitter_cfg.c **** 
 775:.\Generated_Source\PSoC4/cyfitter_cfg.c **** 		/* Perform normal device configuration. Order is not critical for these items. */
 776:.\Generated_Source\PSoC4/cyfitter_cfg.c **** 		CY_SET_XTND_REG16((void CYFAR *)(CYREG_UDB_BCTL0_DRV), 0x0A00u);
 561              		.loc 1 776 0
 562 01e2 384B     		ldr	r3, .L22+16
 563 01e4 A022     		mov	r2, #160
 564 01e6 1201     		lsl	r2, r2, #4
 565 01e8 1A80     		strh	r2, [r3]
 777:.\Generated_Source\PSoC4/cyfitter_cfg.c **** 		CY_SET_XTND_REG8((void CYFAR *)(CYREG_UDB_BCTL0_DRV + 0x2u), 0x01u);
 566              		.loc 1 777 0
 567 01ea 374B     		ldr	r3, .L22+20
 568 01ec 0122     		mov	r2, #1
 569 01ee 1A70     		strb	r2, [r3]
 778:.\Generated_Source\PSoC4/cyfitter_cfg.c **** 
 779:.\Generated_Source\PSoC4/cyfitter_cfg.c **** 		/* HSIOM Starting address: CYDEV_HSIOM_BASE */
 780:.\Generated_Source\PSoC4/cyfitter_cfg.c **** 		CY_SET_XTND_REG32((void CYFAR *)(CYDEV_HSIOM_BASE), 0x00990000u);
 570              		.loc 1 780 0
 571 01f0 364B     		ldr	r3, .L22+24
 572 01f2 9922     		mov	r2, #153
 573 01f4 1204     		lsl	r2, r2, #16
 574 01f6 1A60     		str	r2, [r3]
 781:.\Generated_Source\PSoC4/cyfitter_cfg.c **** 		CY_SET_XTND_REG32((void CYFAR *)(CYREG_HSIOM_PORT_SEL3), 0x0000EE00u);
 575              		.loc 1 781 0
 576 01f8 354B     		ldr	r3, .L22+28
 577 01fa EE22     		mov	r2, #238
 578 01fc 1202     		lsl	r2, r2, #8
 579 01fe 1A60     		str	r2, [r3]
ARM GAS  C:\Users\MATTHE~1\AppData\Local\Temp\cc3IpA1M.s 			page 25


 782:.\Generated_Source\PSoC4/cyfitter_cfg.c **** 		CY_SET_XTND_REG32((void CYFAR *)(CYREG_HSIOM_PORT_SEL4), 0x00000009u);
 580              		.loc 1 782 0
 581 0200 344B     		ldr	r3, .L22+32
 582 0202 0922     		mov	r2, #9
 583 0204 1A60     		str	r2, [r3]
 783:.\Generated_Source\PSoC4/cyfitter_cfg.c **** 
 784:.\Generated_Source\PSoC4/cyfitter_cfg.c **** 		/* IOPINS0_0 Starting address: CYDEV_PRT0_DR */
 785:.\Generated_Source\PSoC4/cyfitter_cfg.c **** 		CY_SET_XTND_REG32((void CYFAR *)(CYREG_PRT0_DR), 0x000000A0u);
 584              		.loc 1 785 0
 585 0206 344B     		ldr	r3, .L22+36
 586 0208 A022     		mov	r2, #160
 587 020a 1A60     		str	r2, [r3]
 786:.\Generated_Source\PSoC4/cyfitter_cfg.c **** 		CY_SET_XTND_REG32((void CYFAR *)(CYREG_PRT0_PC), 0x00431000u);
 588              		.loc 1 786 0
 589 020c 334B     		ldr	r3, .L22+40
 590 020e 344A     		ldr	r2, .L22+44
 591 0210 1A60     		str	r2, [r3]
 787:.\Generated_Source\PSoC4/cyfitter_cfg.c **** 		CY_SET_XTND_REG32((void CYFAR *)(CYREG_PRT0_PC2), 0x00000020u);
 592              		.loc 1 787 0
 593 0212 344B     		ldr	r3, .L22+48
 594 0214 2022     		mov	r2, #32
 595 0216 1A60     		str	r2, [r3]
 788:.\Generated_Source\PSoC4/cyfitter_cfg.c **** 
 789:.\Generated_Source\PSoC4/cyfitter_cfg.c **** 		/* IOPINS0_1 Starting address: CYDEV_PRT1_DR */
 790:.\Generated_Source\PSoC4/cyfitter_cfg.c **** 		CY_SET_XTND_REG32((void CYFAR *)(CYREG_PRT1_PC), 0x00180000u);
 596              		.loc 1 790 0
 597 0218 334B     		ldr	r3, .L22+52
 598 021a C022     		mov	r2, #192
 599 021c 5203     		lsl	r2, r2, #13
 600 021e 1A60     		str	r2, [r3]
 791:.\Generated_Source\PSoC4/cyfitter_cfg.c **** 
 792:.\Generated_Source\PSoC4/cyfitter_cfg.c **** 		/* IOPINS0_2 Starting address: CYDEV_PRT2_DR */
 793:.\Generated_Source\PSoC4/cyfitter_cfg.c **** 		CY_SET_XTND_REG32((void CYFAR *)(CYREG_PRT2_PC), 0x006DB6DBu);
 601              		.loc 1 793 0
 602 0220 324B     		ldr	r3, .L22+56
 603 0222 334A     		ldr	r2, .L22+60
 604 0224 1A60     		str	r2, [r3]
 794:.\Generated_Source\PSoC4/cyfitter_cfg.c **** 
 795:.\Generated_Source\PSoC4/cyfitter_cfg.c **** 		/* IOPINS0_3 Starting address: CYDEV_PRT3_DR */
 796:.\Generated_Source\PSoC4/cyfitter_cfg.c **** 		CY_SET_XTND_REG32((void CYFAR *)(CYREG_PRT3_DR), 0x000000E0u);
 605              		.loc 1 796 0
 606 0226 334B     		ldr	r3, .L22+64
 607 0228 E022     		mov	r2, #224
 608 022a 1A60     		str	r2, [r3]
 797:.\Generated_Source\PSoC4/cyfitter_cfg.c **** 		CY_SET_XTND_REG32((void CYFAR *)(CYREG_PRT3_PC), 0x00DB0D80u);
 609              		.loc 1 797 0
 610 022c 324B     		ldr	r3, .L22+68
 611 022e 334A     		ldr	r2, .L22+72
 612 0230 1A60     		str	r2, [r3]
 798:.\Generated_Source\PSoC4/cyfitter_cfg.c **** 
 799:.\Generated_Source\PSoC4/cyfitter_cfg.c **** 		/* IOPINS0_4 Starting address: CYDEV_PRT4_DR */
 800:.\Generated_Source\PSoC4/cyfitter_cfg.c **** 		CY_SET_XTND_REG32((void CYFAR *)(CYREG_PRT4_PC), 0x00000001u);
 613              		.loc 1 800 0
 614 0232 334B     		ldr	r3, .L22+76
 615 0234 0122     		mov	r2, #1
 616 0236 1A60     		str	r2, [r3]
 801:.\Generated_Source\PSoC4/cyfitter_cfg.c **** 
ARM GAS  C:\Users\MATTHE~1\AppData\Local\Temp\cc3IpA1M.s 			page 26


 802:.\Generated_Source\PSoC4/cyfitter_cfg.c **** 		/* UDB_PA_0 Starting address: CYDEV_UDB_PA0_BASE */
 803:.\Generated_Source\PSoC4/cyfitter_cfg.c **** 		CY_SET_XTND_REG32((void CYFAR *)(CYDEV_UDB_PA0_BASE), 0x00990000u);
 617              		.loc 1 803 0
 618 0238 324B     		ldr	r3, .L22+80
 619 023a 9922     		mov	r2, #153
 620 023c 1204     		lsl	r2, r2, #16
 621 023e 1A60     		str	r2, [r3]
 804:.\Generated_Source\PSoC4/cyfitter_cfg.c **** 		CY_SET_XTND_REG32((void CYFAR *)(CYREG_UDB_PA0_CFG4), 0x80000000u);
 622              		.loc 1 804 0
 623 0240 314B     		ldr	r3, .L22+84
 624 0242 8022     		mov	r2, #128
 625 0244 1206     		lsl	r2, r2, #24
 626 0246 1A60     		str	r2, [r3]
 805:.\Generated_Source\PSoC4/cyfitter_cfg.c **** 
 806:.\Generated_Source\PSoC4/cyfitter_cfg.c **** 		/* UDB_PA_1 Starting address: CYDEV_UDB_PA1_BASE */
 807:.\Generated_Source\PSoC4/cyfitter_cfg.c **** 		CY_SET_XTND_REG32((void CYFAR *)(CYDEV_UDB_PA1_BASE), 0x00990000u);
 627              		.loc 1 807 0
 628 0248 304B     		ldr	r3, .L22+88
 629 024a 9922     		mov	r2, #153
 630 024c 1204     		lsl	r2, r2, #16
 631 024e 1A60     		str	r2, [r3]
 808:.\Generated_Source\PSoC4/cyfitter_cfg.c **** 
 809:.\Generated_Source\PSoC4/cyfitter_cfg.c **** 		/* UDB_PA_2 Starting address: CYDEV_UDB_PA2_BASE */
 810:.\Generated_Source\PSoC4/cyfitter_cfg.c **** 		CY_SET_XTND_REG32((void CYFAR *)(CYDEV_UDB_PA2_BASE), 0x00990004u);
 632              		.loc 1 810 0
 633 0250 2F4B     		ldr	r3, .L22+92
 634 0252 304A     		ldr	r2, .L22+96
 635 0254 1A60     		str	r2, [r3]
 811:.\Generated_Source\PSoC4/cyfitter_cfg.c **** 		CY_SET_XTND_REG32((void CYFAR *)(CYREG_UDB_PA2_CFG4), 0xAAAA0000u);
 636              		.loc 1 811 0
 637 0256 304B     		ldr	r3, .L22+100
 638 0258 304A     		ldr	r2, .L22+104
 639 025a 1A60     		str	r2, [r3]
 812:.\Generated_Source\PSoC4/cyfitter_cfg.c **** 
 813:.\Generated_Source\PSoC4/cyfitter_cfg.c **** 		/* UDB_PA_3 Starting address: CYDEV_UDB_PA3_BASE */
 814:.\Generated_Source\PSoC4/cyfitter_cfg.c **** 		CY_SET_XTND_REG32((void CYFAR *)(CYDEV_UDB_PA3_BASE), 0x00990000u);
 640              		.loc 1 814 0
 641 025c 304B     		ldr	r3, .L22+108
 642 025e 9922     		mov	r2, #153
 643 0260 1204     		lsl	r2, r2, #16
 644 0262 1A60     		str	r2, [r3]
 815:.\Generated_Source\PSoC4/cyfitter_cfg.c **** 
 816:.\Generated_Source\PSoC4/cyfitter_cfg.c **** 		/* INT_SELECT Starting address: CYDEV_CPUSS_INTR_SELECT */
 817:.\Generated_Source\PSoC4/cyfitter_cfg.c **** 		CY_SET_XTND_REG32((void CYFAR *)(CYREG_CPUSS_INTR_SELECT), 0x00000005u);
 645              		.loc 1 817 0
 646 0264 2F4B     		ldr	r3, .L22+112
 647 0266 0522     		mov	r2, #5
 648 0268 1A60     		str	r2, [r3]
 818:.\Generated_Source\PSoC4/cyfitter_cfg.c **** 
 819:.\Generated_Source\PSoC4/cyfitter_cfg.c **** 		/* INT_CONFIG Starting address: CYDEV_UDB_INT_CFG */
 820:.\Generated_Source\PSoC4/cyfitter_cfg.c **** 		CY_SET_XTND_REG32((void CYFAR *)(CYREG_UDB_INT_CFG), 0x00000006u);
 649              		.loc 1 820 0
 650 026a 2F4B     		ldr	r3, .L22+116
 651 026c 0622     		mov	r2, #6
 652 026e 1A60     		str	r2, [r3]
 821:.\Generated_Source\PSoC4/cyfitter_cfg.c **** 
 822:.\Generated_Source\PSoC4/cyfitter_cfg.c **** 		/* Enable digital routing */
ARM GAS  C:\Users\MATTHE~1\AppData\Local\Temp\cc3IpA1M.s 			page 27


 823:.\Generated_Source\PSoC4/cyfitter_cfg.c **** 		CY_SET_XTND_REG8((void *)CYREG_UDB_UDBIF_BANK_CTL, CY_GET_XTND_REG8((void *)CYREG_UDB_UDBIF_BANK_
 653              		.loc 1 823 0
 654 0270 2E4B     		ldr	r3, .L22+120
 655 0272 2E4A     		ldr	r2, .L22+120
 656 0274 1278     		ldrb	r2, [r2]
 657 0276 D2B2     		uxtb	r2, r2
 658 0278 0221     		mov	r1, #2
 659 027a 0A43     		orr	r2, r1
 660 027c D2B2     		uxtb	r2, r2
 661 027e 1A70     		strb	r2, [r3]
 824:.\Generated_Source\PSoC4/cyfitter_cfg.c **** 
 825:.\Generated_Source\PSoC4/cyfitter_cfg.c **** 		/* Enable UDB array */
 826:.\Generated_Source\PSoC4/cyfitter_cfg.c **** 		CY_SET_XTND_REG8((void *)CYREG_UDB_UDBIF_WAIT_CFG, (uint8)((CY_GET_XTND_REG8((void *)CYREG_UDB_UD
 662              		.loc 1 826 0
 663 0280 2B4B     		ldr	r3, .L22+124
 664 0282 2B4A     		ldr	r2, .L22+124
 665 0284 1278     		ldrb	r2, [r2]
 666 0286 D2B2     		uxtb	r2, r2
 667 0288 3C21     		mov	r1, #60
 668 028a 8A43     		bic	r2, r1
 669 028c D2B2     		uxtb	r2, r2
 670 028e 1421     		mov	r1, #20
 671 0290 0A43     		orr	r2, r1
 672 0292 D2B2     		uxtb	r2, r2
 673 0294 1A70     		strb	r2, [r3]
 827:.\Generated_Source\PSoC4/cyfitter_cfg.c **** 		CY_SET_XTND_REG8((void *)CYREG_UDB_UDBIF_BANK_CTL, (uint8)(CY_GET_XTND_REG8((void *)CYREG_UDB_UDB
 674              		.loc 1 827 0
 675 0296 254B     		ldr	r3, .L22+120
 676 0298 244A     		ldr	r2, .L22+120
 677 029a 1278     		ldrb	r2, [r2]
 678 029c D2B2     		uxtb	r2, r2
 679 029e 1621     		mov	r1, #22
 680 02a0 0A43     		orr	r2, r1
 681 02a2 D2B2     		uxtb	r2, r2
 682 02a4 1A70     		strb	r2, [r3]
 683              	.LBE3:
 828:.\Generated_Source\PSoC4/cyfitter_cfg.c **** 	}
 829:.\Generated_Source\PSoC4/cyfitter_cfg.c **** 
 830:.\Generated_Source\PSoC4/cyfitter_cfg.c **** 	/* Setup clocks based on selections from Clock DWR */
 831:.\Generated_Source\PSoC4/cyfitter_cfg.c **** 	ClockSetup();
 684              		.loc 1 831 0
 685 02a6 FFF7FDFE 		bl	ClockSetup
 832:.\Generated_Source\PSoC4/cyfitter_cfg.c **** 
 833:.\Generated_Source\PSoC4/cyfitter_cfg.c **** 	/* Perform basic analog initialization to defaults */
 834:.\Generated_Source\PSoC4/cyfitter_cfg.c **** 	AnalogSetDefault();
 686              		.loc 1 834 0
 687 02aa FFF7FEFF 		bl	AnalogSetDefault
 835:.\Generated_Source\PSoC4/cyfitter_cfg.c **** 
 836:.\Generated_Source\PSoC4/cyfitter_cfg.c **** }
 688              		.loc 1 836 0
 689 02ae BD46     		mov	sp, r7
 690 02b0 02B0     		add	sp, sp, #8
 691              		@ sp needed
 692 02b2 80BD     		pop	{r7, pc}
 693              	.L23:
 694              		.align	2
 695              	.L22:
ARM GAS  C:\Users\MATTHE~1\AppData\Local\Temp\cc3IpA1M.s 			page 28


 696 02b4 1C700F40 		.word	1074753564
 697 02b8 04000000 		.word	cfg_memset_list.4735
 698 02bc 10000000 		.word	cy_cfg_addr_table.4729
 699 02c0 38000000 		.word	cy_cfg_data_table.4730
 700 02c4 00600F40 		.word	1074749440
 701 02c8 02600F40 		.word	1074749442
 702 02cc 00000140 		.word	1073807360
 703 02d0 0C000140 		.word	1073807372
 704 02d4 10000140 		.word	1073807376
 705 02d8 00000440 		.word	1074003968
 706 02dc 08000440 		.word	1074003976
 707 02e0 00104300 		.word	4395008
 708 02e4 18000440 		.word	1074003992
 709 02e8 08010440 		.word	1074004232
 710 02ec 08020440 		.word	1074004488
 711 02f0 DBB66D00 		.word	7190235
 712 02f4 00030440 		.word	1074004736
 713 02f8 08030440 		.word	1074004744
 714 02fc 800DDB00 		.word	14355840
 715 0300 08040440 		.word	1074005000
 716 0304 00500F40 		.word	1074745344
 717 0308 04500F40 		.word	1074745348
 718 030c 10500F40 		.word	1074745360
 719 0310 20500F40 		.word	1074745376
 720 0314 04009900 		.word	10027012
 721 0318 24500F40 		.word	1074745380
 722 031c 0000AAAA 		.word	-1431699456
 723 0320 30500F40 		.word	1074745392
 724 0324 20000040 		.word	1073741856
 725 0328 00800F40 		.word	1074757632
 726 032c 00700F40 		.word	1074753536
 727 0330 01700F40 		.word	1074753537
 728              		.cfi_endproc
 729              	.LFE7:
 730              		.size	cyfitter_cfg, .-cyfitter_cfg
 731              		.data
 732              		.align	2
 733              		.type	imo_trim_table.4708, %object
 734              		.size	imo_trim_table.4708, 4
 735              	imo_trim_table.4708:
 736 0000 C0F1FF0F 		.word	268431808
 737              		.section	.rodata
 738              		.align	2
 739              		.type	IMO_TRIM_FREQ_TABLE_ENTRIES.4709, %object
 740              		.size	IMO_TRIM_FREQ_TABLE_ENTRIES.4709, 4
 741              	IMO_TRIM_FREQ_TABLE_ENTRIES.4709:
 742 0000 04000000 		.word	4
 743              		.align	2
 744              		.type	cfg_memset_list.4735, %object
 745              		.size	cfg_memset_list.4735, 12
 746              	cfg_memset_list.4735:
 747 0004 00300F40 		.word	1074737152
 748 0008 0004     		.short	1024
 749 000a 00400F40 		.4byte	1074741248
 750 000e 0004     		.short	1024
 751              		.align	2
 752              		.type	cy_cfg_addr_table.4729, %object
ARM GAS  C:\Users\MATTHE~1\AppData\Local\Temp\cc3IpA1M.s 			page 29


 753              		.size	cy_cfg_addr_table.4729, 40
 754              	cy_cfg_addr_table.4729:
 755 0010 04000F40 		.word	1074724868
 756 0014 6E300F40 		.word	1074737262
 757 0018 48310F40 		.word	1074737480
 758 001c 69320F40 		.word	1074737769
 759 0020 58330F40 		.word	1074738008
 760 0024 06400F40 		.word	1074741254
 761 0028 03410F40 		.word	1074741507
 762 002c 09420F40 		.word	1074741769
 763 0030 05430F40 		.word	1074742021
 764 0034 02600F40 		.word	1074749442
 765              		.align	2
 766              		.type	cy_cfg_data_table.4730, %object
 767              		.size	cy_cfg_data_table.4730, 808
 768              	cy_cfg_data_table.4730:
 769 0038 80       		.byte	-128
 770 0039 72       		.byte	114
 771 003a 81       		.byte	-127
 772 003b 38       		.byte	56
 773 003c 82       		.byte	-126
 774 003d 38       		.byte	56
 775 003e 83       		.byte	-125
 776 003f 72       		.byte	114
 777 0040 00       		.byte	0
 778 0041 FF       		.byte	-1
 779 0042 01       		.byte	1
 780 0043 20       		.byte	32
 781 0044 04       		.byte	4
 782 0045 4C       		.byte	76
 783 0046 05       		.byte	5
 784 0047 30       		.byte	48
 785 0048 06       		.byte	6
 786 0049 A3       		.byte	-93
 787 004a 08       		.byte	8
 788 004b F3       		.byte	-13
 789 004c 09       		.byte	9
 790 004d 10       		.byte	16
 791 004e 0A       		.byte	10
 792 004f 0C       		.byte	12
 793 0050 0C       		.byte	12
 794 0051 4F       		.byte	79
 795 0052 0D       		.byte	13
 796 0053 70       		.byte	112
 797 0054 0E       		.byte	14
 798 0055 90       		.byte	-112
 799 0056 0F       		.byte	15
 800 0057 0F       		.byte	15
 801 0058 10       		.byte	16
 802 0059 03       		.byte	3
 803 005a 11       		.byte	17
 804 005b 03       		.byte	3
 805 005c 14       		.byte	20
 806 005d 02       		.byte	2
 807 005e 15       		.byte	21
 808 005f 02       		.byte	2
 809 0060 18       		.byte	24
ARM GAS  C:\Users\MATTHE~1\AppData\Local\Temp\cc3IpA1M.s 			page 30


 810 0061 04       		.byte	4
 811 0062 19       		.byte	25
 812 0063 01       		.byte	1
 813 0064 1E       		.byte	30
 814 0065 B3       		.byte	-77
 815 0066 1F       		.byte	31
 816 0067 0B       		.byte	11
 817 0068 20       		.byte	32
 818 0069 08       		.byte	8
 819 006a 21       		.byte	33
 820 006b 7F       		.byte	127
 821 006c 24       		.byte	36
 822 006d 41       		.byte	65
 823 006e 25       		.byte	37
 824 006f 4F       		.byte	79
 825 0070 27       		.byte	39
 826 0071 30       		.byte	48
 827 0072 28       		.byte	40
 828 0073 0C       		.byte	12
 829 0074 29       		.byte	41
 830 0075 78       		.byte	120
 831 0076 2B       		.byte	43
 832 0077 07       		.byte	7
 833 0078 2E       		.byte	46
 834 0079 40       		.byte	64
 835 007a 30       		.byte	48
 836 007b 8C       		.byte	-116
 837 007c 31       		.byte	49
 838 007d 40       		.byte	64
 839 007e 32       		.byte	50
 840 007f 0F       		.byte	15
 841 0080 33       		.byte	51
 842 0081 38       		.byte	56
 843 0082 34       		.byte	52
 844 0083 7C       		.byte	124
 845 0084 35       		.byte	53
 846 0085 03       		.byte	3
 847 0086 37       		.byte	55
 848 0087 04       		.byte	4
 849 0088 39       		.byte	57
 850 0089 80       		.byte	-128
 851 008a 3A       		.byte	58
 852 008b AA       		.byte	-86
 853 008c 3F       		.byte	63
 854 008d 01       		.byte	1
 855 008e 56       		.byte	86
 856 008f 02       		.byte	2
 857 0090 57       		.byte	87
 858 0091 13       		.byte	19
 859 0092 58       		.byte	88
 860 0093 04       		.byte	4
 861 0094 59       		.byte	89
 862 0095 04       		.byte	4
 863 0096 5B       		.byte	91
 864 0097 04       		.byte	4
 865 0098 5C       		.byte	92
 866 0099 33       		.byte	51
ARM GAS  C:\Users\MATTHE~1\AppData\Local\Temp\cc3IpA1M.s 			page 31


 867 009a 5D       		.byte	93
 868 009b 30       		.byte	48
 869 009c 5F       		.byte	95
 870 009d 01       		.byte	1
 871 009e 80       		.byte	-128
 872 009f 02       		.byte	2
 873 00a0 81       		.byte	-127
 874 00a1 02       		.byte	2
 875 00a2 82       		.byte	-126
 876 00a3 45       		.byte	69
 877 00a4 87       		.byte	-121
 878 00a5 01       		.byte	1
 879 00a6 8B       		.byte	-117
 880 00a7 08       		.byte	8
 881 00a8 8C       		.byte	-116
 882 00a9 80       		.byte	-128
 883 00aa 91       		.byte	-111
 884 00ab 02       		.byte	2
 885 00ac 94       		.byte	-108
 886 00ad 14       		.byte	20
 887 00ae 95       		.byte	-107
 888 00af 04       		.byte	4
 889 00b0 96       		.byte	-106
 890 00b1 2A       		.byte	42
 891 00b2 98       		.byte	-104
 892 00b3 9F       		.byte	-97
 893 00b4 9B       		.byte	-101
 894 00b5 08       		.byte	8
 895 00b6 9D       		.byte	-99
 896 00b7 02       		.byte	2
 897 00b8 A1       		.byte	-95
 898 00b9 02       		.byte	2
 899 00ba A4       		.byte	-92
 900 00bb 9F       		.byte	-97
 901 00bc A5       		.byte	-91
 902 00bd 04       		.byte	4
 903 00be A8       		.byte	-88
 904 00bf 09       		.byte	9
 905 00c0 A9       		.byte	-87
 906 00c1 04       		.byte	4
 907 00c2 AA       		.byte	-86
 908 00c3 32       		.byte	50
 909 00c4 AD       		.byte	-83
 910 00c5 04       		.byte	4
 911 00c6 B0       		.byte	-80
 912 00c7 07       		.byte	7
 913 00c8 B1       		.byte	-79
 914 00c9 08       		.byte	8
 915 00ca B2       		.byte	-78
 916 00cb 18       		.byte	24
 917 00cc B3       		.byte	-77
 918 00cd 02       		.byte	2
 919 00ce B4       		.byte	-76
 920 00cf 60       		.byte	96
 921 00d0 B5       		.byte	-75
 922 00d1 04       		.byte	4
 923 00d2 B6       		.byte	-74
ARM GAS  C:\Users\MATTHE~1\AppData\Local\Temp\cc3IpA1M.s 			page 32


 924 00d3 80       		.byte	-128
 925 00d4 B7       		.byte	-73
 926 00d5 01       		.byte	1
 927 00d6 B9       		.byte	-71
 928 00d7 28       		.byte	40
 929 00d8 BE       		.byte	-66
 930 00d9 10       		.byte	16
 931 00da BF       		.byte	-65
 932 00db 15       		.byte	21
 933 00dc C0       		.byte	-64
 934 00dd 61       		.byte	97
 935 00de C1       		.byte	-63
 936 00df 04       		.byte	4
 937 00e0 C2       		.byte	-62
 938 00e1 03       		.byte	3
 939 00e2 C4       		.byte	-60
 940 00e3 02       		.byte	2
 941 00e4 C6       		.byte	-58
 942 00e5 C0       		.byte	-64
 943 00e6 C7       		.byte	-57
 944 00e7 0E       		.byte	14
 945 00e8 C8       		.byte	-56
 946 00e9 18       		.byte	24
 947 00ea C9       		.byte	-55
 948 00eb FF       		.byte	-1
 949 00ec CA       		.byte	-54
 950 00ed FF       		.byte	-1
 951 00ee CB       		.byte	-53
 952 00ef FF       		.byte	-1
 953 00f0 CC       		.byte	-52
 954 00f1 62       		.byte	98
 955 00f2 CD       		.byte	-51
 956 00f3 A0       		.byte	-96
 957 00f4 CE       		.byte	-50
 958 00f5 F0       		.byte	-16
 959 00f6 CF       		.byte	-49
 960 00f7 41       		.byte	65
 961 00f8 D0       		.byte	-48
 962 00f9 0C       		.byte	12
 963 00fa D4       		.byte	-44
 964 00fb 18       		.byte	24
 965 00fc D6       		.byte	-42
 966 00fd 04       		.byte	4
 967 00fe D8       		.byte	-40
 968 00ff 04       		.byte	4
 969 0100 D9       		.byte	-39
 970 0101 04       		.byte	4
 971 0102 DA       		.byte	-38
 972 0103 04       		.byte	4
 973 0104 DB       		.byte	-37
 974 0105 04       		.byte	4
 975 0106 DC       		.byte	-36
 976 0107 33       		.byte	51
 977 0108 DD       		.byte	-35
 978 0109 33       		.byte	51
 979 010a DF       		.byte	-33
 980 010b 01       		.byte	1
ARM GAS  C:\Users\MATTHE~1\AppData\Local\Temp\cc3IpA1M.s 			page 33


 981 010c E6       		.byte	-26
 982 010d 40       		.byte	64
 983 010e E7       		.byte	-25
 984 010f 02       		.byte	2
 985 0110 E9       		.byte	-23
 986 0111 10       		.byte	16
 987 0112 EA       		.byte	-22
 988 0113 30       		.byte	48
 989 0114 EB       		.byte	-21
 990 0115 10       		.byte	16
 991 0116 ED       		.byte	-19
 992 0117 10       		.byte	16
 993 0118 EE       		.byte	-18
 994 0119 10       		.byte	16
 995 011a EF       		.byte	-17
 996 011b 12       		.byte	18
 997 011c 00       		.byte	0
 998 011d 41       		.byte	65
 999 011e 02       		.byte	2
 1000 011f 04       		.byte	4
 1001 0120 03       		.byte	3
 1002 0121 20       		.byte	32
 1003 0122 05       		.byte	5
 1004 0123 01       		.byte	1
 1005 0124 07       		.byte	7
 1006 0125 01       		.byte	1
 1007 0126 09       		.byte	9
 1008 0127 88       		.byte	-120
 1009 0128 0A       		.byte	10
 1010 0129 40       		.byte	64
 1011 012a 0B       		.byte	11
 1012 012b 04       		.byte	4
 1013 012c 0D       		.byte	13
 1014 012d 08       		.byte	8
 1015 012e 0E       		.byte	14
 1016 012f 04       		.byte	4
 1017 0130 10       		.byte	16
 1018 0131 80       		.byte	-128
 1019 0132 11       		.byte	17
 1020 0133 88       		.byte	-120
 1021 0134 13       		.byte	19
 1022 0135 10       		.byte	16
 1023 0136 17       		.byte	23
 1024 0137 18       		.byte	24
 1025 0138 18       		.byte	24
 1026 0139 41       		.byte	65
 1027 013a 19       		.byte	25
 1028 013b 14       		.byte	20
 1029 013c 1B       		.byte	27
 1030 013d 60       		.byte	96
 1031 013e 1D       		.byte	29
 1032 013f A9       		.byte	-87
 1033 0140 1E       		.byte	30
 1034 0141 40       		.byte	64
 1035 0142 20       		.byte	32
 1036 0143 08       		.byte	8
 1037 0144 22       		.byte	34
ARM GAS  C:\Users\MATTHE~1\AppData\Local\Temp\cc3IpA1M.s 			page 34


 1038 0145 01       		.byte	1
 1039 0146 23       		.byte	35
 1040 0147 21       		.byte	33
 1041 0148 24       		.byte	36
 1042 0149 04       		.byte	4
 1043 014a 25       		.byte	37
 1044 014b 54       		.byte	84
 1045 014c 26       		.byte	38
 1046 014d 12       		.byte	18
 1047 014e 27       		.byte	39
 1048 014f 10       		.byte	16
 1049 0150 28       		.byte	40
 1050 0151 40       		.byte	64
 1051 0152 29       		.byte	41
 1052 0153 14       		.byte	20
 1053 0154 2A       		.byte	42
 1054 0155 04       		.byte	4
 1055 0156 2B       		.byte	43
 1056 0157 50       		.byte	80
 1057 0158 2C       		.byte	44
 1058 0159 20       		.byte	32
 1059 015a 2D       		.byte	45
 1060 015b 01       		.byte	1
 1061 015c 2F       		.byte	47
 1062 015d 09       		.byte	9
 1063 015e 31       		.byte	49
 1064 015f 89       		.byte	-119
 1065 0160 33       		.byte	51
 1066 0161 10       		.byte	16
 1067 0162 34       		.byte	52
 1068 0163 10       		.byte	16
 1069 0164 36       		.byte	54
 1070 0165 81       		.byte	-127
 1071 0166 37       		.byte	55
 1072 0167 24       		.byte	36
 1073 0168 38       		.byte	56
 1074 0169 68       		.byte	104
 1075 016a 3A       		.byte	58
 1076 016b 02       		.byte	2
 1077 016c 3C       		.byte	60
 1078 016d 22       		.byte	34
 1079 016e 3D       		.byte	61
 1080 016f 08       		.byte	8
 1081 0170 44       		.byte	68
 1082 0171 50       		.byte	80
 1083 0172 45       		.byte	69
 1084 0173 A0       		.byte	-96
 1085 0174 49       		.byte	73
 1086 0175 80       		.byte	-128
 1087 0176 4A       		.byte	74
 1088 0177 02       		.byte	2
 1089 0178 4F       		.byte	79
 1090 0179 20       		.byte	32
 1091 017a 54       		.byte	84
 1092 017b 10       		.byte	16
 1093 017c 56       		.byte	86
 1094 017d 08       		.byte	8
ARM GAS  C:\Users\MATTHE~1\AppData\Local\Temp\cc3IpA1M.s 			page 35


 1095 017e 5A       		.byte	90
 1096 017f 02       		.byte	2
 1097 0180 5F       		.byte	95
 1098 0181 02       		.byte	2
 1099 0182 65       		.byte	101
 1100 0183 80       		.byte	-128
 1101 0184 66       		.byte	102
 1102 0185 10       		.byte	16
 1103 0186 67       		.byte	103
 1104 0187 40       		.byte	64
 1105 0188 6A       		.byte	106
 1106 0189 04       		.byte	4
 1107 018a 6B       		.byte	107
 1108 018b 09       		.byte	9
 1109 018c 70       		.byte	112
 1110 018d 94       		.byte	-108
 1111 018e 72       		.byte	114
 1112 018f 02       		.byte	2
 1113 0190 73       		.byte	115
 1114 0191 14       		.byte	20
 1115 0192 87       		.byte	-121
 1116 0193 40       		.byte	64
 1117 0194 88       		.byte	-120
 1118 0195 05       		.byte	5
 1119 0196 8B       		.byte	-117
 1120 0197 02       		.byte	2
 1121 0198 C0       		.byte	-64
 1122 0199 9F       		.byte	-97
 1123 019a C2       		.byte	-62
 1124 019b 6F       		.byte	111
 1125 019c C4       		.byte	-60
 1126 019d 6F       		.byte	111
 1127 019e CA       		.byte	-54
 1128 019f F7       		.byte	-9
 1129 01a0 CC       		.byte	-52
 1130 01a1 FF       		.byte	-1
 1131 01a2 CE       		.byte	-50
 1132 01a3 EF       		.byte	-17
 1133 01a4 D0       		.byte	-48
 1134 01a5 F0       		.byte	-16
 1135 01a6 D2       		.byte	-46
 1136 01a7 20       		.byte	32
 1137 01a8 D6       		.byte	-42
 1138 01a9 81       		.byte	-127
 1139 01aa D8       		.byte	-40
 1140 01ab B0       		.byte	-80
 1141 01ac 03       		.byte	3
 1142 01ad 02       		.byte	2
 1143 01ae 07       		.byte	7
 1144 01af 04       		.byte	4
 1145 01b0 08       		.byte	8
 1146 01b1 02       		.byte	2
 1147 01b2 0A       		.byte	10
 1148 01b3 45       		.byte	69
 1149 01b4 0B       		.byte	11
 1150 01b5 01       		.byte	1
 1151 01b6 14       		.byte	20
ARM GAS  C:\Users\MATTHE~1\AppData\Local\Temp\cc3IpA1M.s 			page 36


 1152 01b7 09       		.byte	9
 1153 01b8 16       		.byte	22
 1154 01b9 32       		.byte	50
 1155 01ba 17       		.byte	23
 1156 01bb 04       		.byte	4
 1157 01bc 18       		.byte	24
 1158 01bd 14       		.byte	20
 1159 01be 1A       		.byte	26
 1160 01bf 2A       		.byte	42
 1161 01c0 1C       		.byte	28
 1162 01c1 80       		.byte	-128
 1163 01c2 24       		.byte	36
 1164 01c3 9F       		.byte	-97
 1165 01c4 27       		.byte	39
 1166 01c5 02       		.byte	2
 1167 01c6 28       		.byte	40
 1168 01c7 9F       		.byte	-97
 1169 01c8 2B       		.byte	43
 1170 01c9 08       		.byte	8
 1171 01ca 2F       		.byte	47
 1172 01cb 08       		.byte	8
 1173 01cc 30       		.byte	48
 1174 01cd 80       		.byte	-128
 1175 01ce 31       		.byte	49
 1176 01cf 01       		.byte	1
 1177 01d0 32       		.byte	50
 1178 01d1 07       		.byte	7
 1179 01d2 33       		.byte	51
 1180 01d3 08       		.byte	8
 1181 01d4 34       		.byte	52
 1182 01d5 18       		.byte	24
 1183 01d6 35       		.byte	53
 1184 01d7 02       		.byte	2
 1185 01d8 36       		.byte	54
 1186 01d9 60       		.byte	96
 1187 01da 37       		.byte	55
 1188 01db 04       		.byte	4
 1189 01dc 3E       		.byte	62
 1190 01dd 40       		.byte	64
 1191 01de 3F       		.byte	63
 1192 01df 54       		.byte	84
 1193 01e0 40       		.byte	64
 1194 01e1 52       		.byte	82
 1195 01e2 41       		.byte	65
 1196 01e3 04       		.byte	4
 1197 01e4 42       		.byte	66
 1198 01e5 06       		.byte	6
 1199 01e6 44       		.byte	68
 1200 01e7 01       		.byte	1
 1201 01e8 45       		.byte	69
 1202 01e9 0C       		.byte	12
 1203 01ea 47       		.byte	71
 1204 01eb E0       		.byte	-32
 1205 01ec 48       		.byte	72
 1206 01ed 21       		.byte	33
 1207 01ee 49       		.byte	73
 1208 01ef FF       		.byte	-1
ARM GAS  C:\Users\MATTHE~1\AppData\Local\Temp\cc3IpA1M.s 			page 37


 1209 01f0 4A       		.byte	74
 1210 01f1 FF       		.byte	-1
 1211 01f2 4B       		.byte	75
 1212 01f3 FF       		.byte	-1
 1213 01f4 4C       		.byte	76
 1214 01f5 62       		.byte	98
 1215 01f6 4D       		.byte	77
 1216 01f7 A0       		.byte	-96
 1217 01f8 4E       		.byte	78
 1218 01f9 F0       		.byte	-16
 1219 01fa 4F       		.byte	79
 1220 01fb 41       		.byte	65
 1221 01fc 50       		.byte	80
 1222 01fd 0C       		.byte	12
 1223 01fe 54       		.byte	84
 1224 01ff 18       		.byte	24
 1225 0200 56       		.byte	86
 1226 0201 04       		.byte	4
 1227 0202 58       		.byte	88
 1228 0203 04       		.byte	4
 1229 0204 59       		.byte	89
 1230 0205 04       		.byte	4
 1231 0206 5A       		.byte	90
 1232 0207 04       		.byte	4
 1233 0208 5B       		.byte	91
 1234 0209 04       		.byte	4
 1235 020a 5C       		.byte	92
 1236 020b 11       		.byte	17
 1237 020c 5D       		.byte	93
 1238 020d 11       		.byte	17
 1239 020e 5F       		.byte	95
 1240 020f 01       		.byte	1
 1241 0210 66       		.byte	102
 1242 0211 40       		.byte	64
 1243 0212 67       		.byte	103
 1244 0213 02       		.byte	2
 1245 0214 69       		.byte	105
 1246 0215 10       		.byte	16
 1247 0216 6A       		.byte	106
 1248 0217 30       		.byte	48
 1249 0218 6B       		.byte	107
 1250 0219 10       		.byte	16
 1251 021a 6D       		.byte	109
 1252 021b 10       		.byte	16
 1253 021c 6E       		.byte	110
 1254 021d 10       		.byte	16
 1255 021e 6F       		.byte	111
 1256 021f 12       		.byte	18
 1257 0220 81       		.byte	-127
 1258 0221 20       		.byte	32
 1259 0222 82       		.byte	-126
 1260 0223 10       		.byte	16
 1261 0224 84       		.byte	-124
 1262 0225 1C       		.byte	28
 1263 0226 85       		.byte	-123
 1264 0227 01       		.byte	1
 1265 0228 86       		.byte	-122
ARM GAS  C:\Users\MATTHE~1\AppData\Local\Temp\cc3IpA1M.s 			page 38


 1266 0229 C3       		.byte	-61
 1267 022a 89       		.byte	-119
 1268 022b 30       		.byte	48
 1269 022c 8A       		.byte	-118
 1270 022d E3       		.byte	-29
 1271 022e 8C       		.byte	-116
 1272 022f F3       		.byte	-13
 1273 0230 8D       		.byte	-115
 1274 0231 70       		.byte	112
 1275 0232 8E       		.byte	-114
 1276 0233 0C       		.byte	12
 1277 0234 8F       		.byte	-113
 1278 0235 0F       		.byte	15
 1279 0236 90       		.byte	-112
 1280 0237 1F       		.byte	31
 1281 0238 92       		.byte	-110
 1282 0239 A0       		.byte	-96
 1283 023a 93       		.byte	-109
 1284 023b 0B       		.byte	11
 1285 023c 94       		.byte	-108
 1286 023d 0C       		.byte	12
 1287 023e 95       		.byte	-107
 1288 023f 7F       		.byte	127
 1289 0240 98       		.byte	-104
 1290 0241 02       		.byte	2
 1291 0242 99       		.byte	-103
 1292 0243 10       		.byte	16
 1293 0244 9C       		.byte	-100
 1294 0245 FF       		.byte	-1
 1295 0246 A0       		.byte	-96
 1296 0247 08       		.byte	8
 1297 0248 A1       		.byte	-95
 1298 0249 4F       		.byte	79
 1299 024a A3       		.byte	-93
 1300 024b 30       		.byte	48
 1301 024c A4       		.byte	-92
 1302 024d 04       		.byte	4
 1303 024e A5       		.byte	-91
 1304 024f 78       		.byte	120
 1305 0250 A7       		.byte	-89
 1306 0251 07       		.byte	7
 1307 0252 A8       		.byte	-88
 1308 0253 11       		.byte	17
 1309 0254 A9       		.byte	-87
 1310 0255 02       		.byte	2
 1311 0256 AC       		.byte	-84
 1312 0257 03       		.byte	3
 1313 0258 AD       		.byte	-83
 1314 0259 03       		.byte	3
 1315 025a B0       		.byte	-80
 1316 025b 8C       		.byte	-116
 1317 025c B1       		.byte	-79
 1318 025d 40       		.byte	64
 1319 025e B3       		.byte	-77
 1320 025f 38       		.byte	56
 1321 0260 B4       		.byte	-76
 1322 0261 7C       		.byte	124
ARM GAS  C:\Users\MATTHE~1\AppData\Local\Temp\cc3IpA1M.s 			page 39


 1323 0262 B5       		.byte	-75
 1324 0263 04       		.byte	4
 1325 0264 B6       		.byte	-74
 1326 0265 0F       		.byte	15
 1327 0266 B7       		.byte	-73
 1328 0267 03       		.byte	3
 1329 0268 B9       		.byte	-71
 1330 0269 20       		.byte	32
 1331 026a BA       		.byte	-70
 1332 026b AA       		.byte	-86
 1333 026c BF       		.byte	-65
 1334 026d 01       		.byte	1
 1335 026e D6       		.byte	-42
 1336 026f 02       		.byte	2
 1337 0270 D7       		.byte	-41
 1338 0271 13       		.byte	19
 1339 0272 D8       		.byte	-40
 1340 0273 04       		.byte	4
 1341 0274 D9       		.byte	-39
 1342 0275 04       		.byte	4
 1343 0276 DB       		.byte	-37
 1344 0277 04       		.byte	4
 1345 0278 DC       		.byte	-36
 1346 0279 11       		.byte	17
 1347 027a DD       		.byte	-35
 1348 027b 10       		.byte	16
 1349 027c DF       		.byte	-33
 1350 027d 01       		.byte	1
 1351 027e 01       		.byte	1
 1352 027f 80       		.byte	-128
 1353 0280 02       		.byte	2
 1354 0281 04       		.byte	4
 1355 0282 03       		.byte	3
 1356 0283 60       		.byte	96
 1357 0284 04       		.byte	4
 1358 0285 10       		.byte	16
 1359 0286 08       		.byte	8
 1360 0287 40       		.byte	64
 1361 0288 09       		.byte	9
 1362 0289 28       		.byte	40
 1363 028a 0A       		.byte	10
 1364 028b 40       		.byte	64
 1365 028c 0D       		.byte	13
 1366 028d 60       		.byte	96
 1367 028e 0E       		.byte	14
 1368 028f 20       		.byte	32
 1369 0290 10       		.byte	16
 1370 0291 A1       		.byte	-95
 1371 0292 11       		.byte	17
 1372 0293 20       		.byte	32
 1373 0294 17       		.byte	23
 1374 0295 28       		.byte	40
 1375 0296 18       		.byte	24
 1376 0297 40       		.byte	64
 1377 0298 19       		.byte	25
 1378 0299 84       		.byte	-124
 1379 029a 1A       		.byte	26
ARM GAS  C:\Users\MATTHE~1\AppData\Local\Temp\cc3IpA1M.s 			page 40


 1380 029b 40       		.byte	64
 1381 029c 1B       		.byte	27
 1382 029d A0       		.byte	-96
 1383 029e 1C       		.byte	28
 1384 029f 10       		.byte	16
 1385 02a0 1D       		.byte	29
 1386 02a1 B2       		.byte	-78
 1387 02a2 20       		.byte	32
 1388 02a3 01       		.byte	1
 1389 02a4 22       		.byte	34
 1390 02a5 19       		.byte	25
 1391 02a6 25       		.byte	37
 1392 02a7 04       		.byte	4
 1393 02a8 27       		.byte	39
 1394 02a9 45       		.byte	69
 1395 02aa 28       		.byte	40
 1396 02ab 03       		.byte	3
 1397 02ac 29       		.byte	41
 1398 02ad 10       		.byte	16
 1399 02ae 2B       		.byte	43
 1400 02af A0       		.byte	-96
 1401 02b0 2D       		.byte	45
 1402 02b1 20       		.byte	32
 1403 02b2 2E       		.byte	46
 1404 02b3 08       		.byte	8
 1405 02b4 2F       		.byte	47
 1406 02b5 02       		.byte	2
 1407 02b6 30       		.byte	48
 1408 02b7 24       		.byte	36
 1409 02b8 31       		.byte	49
 1410 02b9 06       		.byte	6
 1411 02ba 36       		.byte	54
 1412 02bb 08       		.byte	8
 1413 02bc 38       		.byte	56
 1414 02bd 44       		.byte	68
 1415 02be 3A       		.byte	58
 1416 02bf 02       		.byte	2
 1417 02c0 3B       		.byte	59
 1418 02c1 10       		.byte	16
 1419 02c2 3D       		.byte	61
 1420 02c3 20       		.byte	32
 1421 02c4 3F       		.byte	63
 1422 02c5 05       		.byte	5
 1423 02c6 42       		.byte	66
 1424 02c7 80       		.byte	-128
 1425 02c8 43       		.byte	67
 1426 02c9 01       		.byte	1
 1427 02ca 44       		.byte	68
 1428 02cb 40       		.byte	64
 1429 02cc 45       		.byte	69
 1430 02cd 80       		.byte	-128
 1431 02ce 46       		.byte	70
 1432 02cf 54       		.byte	84
 1433 02d0 47       		.byte	71
 1434 02d1 04       		.byte	4
 1435 02d2 4D       		.byte	77
 1436 02d3 80       		.byte	-128
ARM GAS  C:\Users\MATTHE~1\AppData\Local\Temp\cc3IpA1M.s 			page 41


 1437 02d4 4E       		.byte	78
 1438 02d5 08       		.byte	8
 1439 02d6 4F       		.byte	79
 1440 02d7 04       		.byte	4
 1441 02d8 57       		.byte	87
 1442 02d9 02       		.byte	2
 1443 02da 59       		.byte	89
 1444 02db 20       		.byte	32
 1445 02dc 5A       		.byte	90
 1446 02dd 22       		.byte	34
 1447 02de 5C       		.byte	92
 1448 02df 01       		.byte	1
 1449 02e0 64       		.byte	100
 1450 02e1 08       		.byte	8
 1451 02e2 66       		.byte	102
 1452 02e3 80       		.byte	-128
 1453 02e4 67       		.byte	103
 1454 02e5 80       		.byte	-128
 1455 02e6 69       		.byte	105
 1456 02e7 80       		.byte	-128
 1457 02e8 6B       		.byte	107
 1458 02e9 28       		.byte	40
 1459 02ea 70       		.byte	112
 1460 02eb A0       		.byte	-96
 1461 02ec 71       		.byte	113
 1462 02ed 08       		.byte	8
 1463 02ee 72       		.byte	114
 1464 02ef 02       		.byte	2
 1465 02f0 73       		.byte	115
 1466 02f1 10       		.byte	16
 1467 02f2 7C       		.byte	124
 1468 02f3 08       		.byte	8
 1469 02f4 7D       		.byte	125
 1470 02f5 08       		.byte	8
 1471 02f6 81       		.byte	-127
 1472 02f7 02       		.byte	2
 1473 02f8 82       		.byte	-126
 1474 02f9 04       		.byte	4
 1475 02fa 87       		.byte	-121
 1476 02fb 40       		.byte	64
 1477 02fc 88       		.byte	-120
 1478 02fd 04       		.byte	4
 1479 02fe 8A       		.byte	-118
 1480 02ff 40       		.byte	64
 1481 0300 8C       		.byte	-116
 1482 0301 12       		.byte	18
 1483 0302 90       		.byte	-112
 1484 0303 04       		.byte	4
 1485 0304 93       		.byte	-109
 1486 0305 01       		.byte	1
 1487 0306 9A       		.byte	-102
 1488 0307 08       		.byte	8
 1489 0308 9E       		.byte	-98
 1490 0309 10       		.byte	16
 1491 030a A1       		.byte	-95
 1492 030b 10       		.byte	16
 1493 030c A2       		.byte	-94
ARM GAS  C:\Users\MATTHE~1\AppData\Local\Temp\cc3IpA1M.s 			page 42


 1494 030d 10       		.byte	16
 1495 030e B0       		.byte	-80
 1496 030f 20       		.byte	32
 1497 0310 B1       		.byte	-79
 1498 0311 01       		.byte	1
 1499 0312 B2       		.byte	-78
 1500 0313 80       		.byte	-128
 1501 0314 B3       		.byte	-77
 1502 0315 08       		.byte	8
 1503 0316 B6       		.byte	-74
 1504 0317 01       		.byte	1
 1505 0318 B7       		.byte	-73
 1506 0319 05       		.byte	5
 1507 031a C0       		.byte	-64
 1508 031b 4F       		.byte	79
 1509 031c C2       		.byte	-62
 1510 031d EF       		.byte	-17
 1511 031e C4       		.byte	-60
 1512 031f 6F       		.byte	111
 1513 0320 CA       		.byte	-54
 1514 0321 7F       		.byte	127
 1515 0322 CC       		.byte	-52
 1516 0323 47       		.byte	71
 1517 0324 CE       		.byte	-50
 1518 0325 EF       		.byte	-17
 1519 0326 D0       		.byte	-48
 1520 0327 B0       		.byte	-80
 1521 0328 D2       		.byte	-46
 1522 0329 30       		.byte	48
 1523 032a D6       		.byte	-42
 1524 032b 81       		.byte	-127
 1525 032c D8       		.byte	-40
 1526 032d B0       		.byte	-80
 1527 032e 6F       		.byte	111
 1528 032f 02       		.byte	2
 1529 0330 73       		.byte	115
 1530 0331 02       		.byte	2
 1531 0332 87       		.byte	-121
 1532 0333 02       		.byte	2
 1533 0334 DA       		.byte	-38
 1534 0335 80       		.byte	-128
 1535 0336 DC       		.byte	-36
 1536 0337 20       		.byte	32
 1537 0338 E6       		.byte	-26
 1538 0339 40       		.byte	64
 1539 033a 87       		.byte	-121
 1540 033b 02       		.byte	2
 1541 033c A7       		.byte	-89
 1542 033d 02       		.byte	2
 1543 033e E2       		.byte	-30
 1544 033f 10       		.byte	16
 1545 0340 00       		.byte	0
 1546 0341 88       		.byte	-120
 1547 0342 04       		.byte	4
 1548 0343 82       		.byte	-126
 1549 0344 08       		.byte	8
 1550 0345 20       		.byte	32
ARM GAS  C:\Users\MATTHE~1\AppData\Local\Temp\cc3IpA1M.s 			page 43


 1551 0346 09       		.byte	9
 1552 0347 01       		.byte	1
 1553 0348 0C       		.byte	12
 1554 0349 42       		.byte	66
 1555 034a 88       		.byte	-120
 1556 034b 40       		.byte	64
 1557 034c C0       		.byte	-64
 1558 034d 0F       		.byte	15
 1559 034e C2       		.byte	-62
 1560 034f 0F       		.byte	15
 1561 0350 E2       		.byte	-30
 1562 0351 01       		.byte	1
 1563 0352 B0       		.byte	-80
 1564 0353 66       		.byte	102
 1565 0354 B4       		.byte	-76
 1566 0355 41       		.byte	65
 1567 0356 B5       		.byte	-75
 1568 0357 01       		.byte	1
 1569 0358 EA       		.byte	-22
 1570 0359 0F       		.byte	15
 1571 035a EE       		.byte	-18
 1572 035b 0D       		.byte	13
 1573 035c 10       		.byte	16
 1574 035d 0A       		.byte	10
 1575 035e 11       		.byte	17
 1576 035f 01       		.byte	1
 1577              		.text
 1578              	.Letext0:
 1579              		.file 2 "c:\\program files (x86)\\cypress\\psoc creator\\3.1\\psoc creator\\import\\gnu_cs\\arm\\4
 1580              		.file 3 ".\\Generated_Source\\PSoC4/cytypes.h"