ARM GAS  C:\Users\MATTHE~1\AppData\Local\Temp\ccW3t5Wr.s 			page 1


   1              		.cpu cortex-m0
   2              		.fpu softvfp
   3              		.eabi_attribute 20, 1
   4              		.eabi_attribute 21, 1
   5              		.eabi_attribute 23, 3
   6              		.eabi_attribute 24, 1
   7              		.eabi_attribute 25, 1
   8              		.eabi_attribute 26, 1
   9              		.eabi_attribute 30, 6
  10              		.eabi_attribute 34, 0
  11              		.eabi_attribute 18, 4
  12              		.code	16
  13              		.file	"main.c"
  14              		.text
  15              	.Ltext0:
  16              		.cfi_sections	.debug_frame
  17              		.global	m_orientation
  18              		.data
  19              		.align	2
  20              		.type	m_orientation, %object
  21              		.size	m_orientation, 4
  22              	m_orientation:
  23 0000 FF       		.byte	-1
  24 0001 FF       		.byte	-1
  25 0002 FF       		.byte	-1
  26 0003 FF       		.byte	-1
  27              		.section	.text.ProcessChar,"ax",%progbits
  28              		.align	2
  29              		.global	ProcessChar
  30              		.code	16
  31              		.thumb_func
  32              		.type	ProcessChar, %function
  33              	ProcessChar:
  34              	.LFB33:
  35              		.file 1 ".\\main.c"
   1:.\main.c      **** /* ========================================
   2:.\main.c      ****  *
   3:.\main.c      ****  * Copyright YOUR COMPANY, THE YEAR
   4:.\main.c      ****  * All Rights Reserved
   5:.\main.c      ****  * UNPUBLISHED, LICENSED SOFTWARE.
   6:.\main.c      ****  *
   7:.\main.c      ****  * CONFIDENTIAL AND PROPRIETARY INFORMATION
   8:.\main.c      ****  * WHICH IS THE PROPERTY OF your company.
   9:.\main.c      ****  *
  10:.\main.c      ****  * ========================================
  11:.\main.c      **** */
  12:.\main.c      **** #include <project.h>
  13:.\main.c      **** 
  14:.\main.c      **** #define Tx_PutChar Rx_Right_UartPutChar
  15:.\main.c      **** 
  16:.\main.c      **** typedef enum {LEFT, RIGHT, BACK, FRONT} Side;
  17:.\main.c      **** 
  18:.\main.c      **** uint8 m_orientation[4] = {-1, -1, -1, -1};
  19:.\main.c      **** 
  20:.\main.c      **** void ProcessChar(char c, Side side) {
  36              		.loc 1 20 0
  37              		.cfi_startproc
ARM GAS  C:\Users\MATTHE~1\AppData\Local\Temp\ccW3t5Wr.s 			page 2


  38 0000 80B5     		push	{r7, lr}
  39              		.cfi_def_cfa_offset 8
  40              		.cfi_offset 7, -8
  41              		.cfi_offset 14, -4
  42 0002 82B0     		sub	sp, sp, #8
  43              		.cfi_def_cfa_offset 16
  44 0004 00AF     		add	r7, sp, #0
  45              		.cfi_def_cfa_register 7
  46 0006 0A1C     		mov	r2, r1
  47 0008 FB1D     		add	r3, r7, #7
  48 000a 011C     		add	r1, r0, #0
  49 000c 1970     		strb	r1, [r3]
  50 000e BB1D     		add	r3, r7, #6
  51 0010 1A70     		strb	r2, [r3]
  21:.\main.c      ****     if (c == '1') {
  52              		.loc 1 21 0
  53 0012 FB1D     		add	r3, r7, #7
  54 0014 1B78     		ldrb	r3, [r3]
  55 0016 312B     		cmp	r3, #49
  56 0018 03D1     		bne	.L2
  22:.\main.c      ****         LED_Write(1);   
  57              		.loc 1 22 0
  58 001a 0120     		mov	r0, #1
  59 001c FFF7FEFF 		bl	LED_Write
  60 0020 02E0     		b	.L3
  61              	.L2:
  23:.\main.c      ****     } else {
  24:.\main.c      ****         LED_Write(0);
  62              		.loc 1 24 0
  63 0022 0020     		mov	r0, #0
  64 0024 FFF7FEFF 		bl	LED_Write
  65              	.L3:
  25:.\main.c      ****     }
  26:.\main.c      ****     
  27:.\main.c      ****     RGBLed_Write(m_orientation[side]);
  66              		.loc 1 27 0
  67 0028 BB1D     		add	r3, r7, #6
  68 002a 1B78     		ldrb	r3, [r3]
  69 002c 044A     		ldr	r2, .L10
  70 002e D35C     		ldrb	r3, [r2, r3]
  71 0030 181C     		mov	r0, r3
  72 0032 FFF7FEFF 		bl	RGBLed_Write
  28:.\main.c      ****     switch (side) {
  29:.\main.c      ****     case LEFT:
  30:.\main.c      ****         //RGBLed_Write(0);
  31:.\main.c      ****         break;
  32:.\main.c      ****     case RIGHT:
  33:.\main.c      ****         //RGBLed_Write(1);
  34:.\main.c      ****         break;
  73              		.loc 1 34 0
  74 0036 C046     		mov	r8, r8
  35:.\main.c      ****     case BACK:
  36:.\main.c      ****         //RGBLed_Write(2);
  37:.\main.c      ****         break;
  38:.\main.c      ****     case FRONT:
  39:.\main.c      ****         //RGBLed_Write(3);
  40:.\main.c      ****         break;
ARM GAS  C:\Users\MATTHE~1\AppData\Local\Temp\ccW3t5Wr.s 			page 3


  41:.\main.c      ****     }
  42:.\main.c      **** };
  75              		.loc 1 42 0
  76 0038 BD46     		mov	sp, r7
  77 003a 02B0     		add	sp, sp, #8
  78              		@ sp needed
  79 003c 80BD     		pop	{r7, pc}
  80              	.L11:
  81 003e C046     		.align	2
  82              	.L10:
  83 0040 00000000 		.word	m_orientation
  84              		.cfi_endproc
  85              	.LFE33:
  86              		.size	ProcessChar, .-ProcessChar
  87              		.section	.text.isr_Rx_Left_Int,"ax",%progbits
  88              		.align	2
  89              		.global	isr_Rx_Left_Int
  90              		.code	16
  91              		.thumb_func
  92              		.type	isr_Rx_Left_Int, %function
  93              	isr_Rx_Left_Int:
  94              	.LFB34:
  43:.\main.c      **** 
  44:.\main.c      **** CY_ISR_PROTO(isr_Rx_Left_Int);
  45:.\main.c      **** CY_ISR(isr_Rx_Left_Int) {
  95              		.loc 1 45 0
  96              		.cfi_startproc
  97 0000 80B5     		push	{r7, lr}
  98              		.cfi_def_cfa_offset 8
  99              		.cfi_offset 7, -8
 100              		.cfi_offset 14, -4
 101 0002 00AF     		add	r7, sp, #0
 102              		.cfi_def_cfa_register 7
  46:.\main.c      ****     while (Rx_Left_SpiUartGetRxBufferSize()) {
 103              		.loc 1 46 0
 104 0004 07E0     		b	.L13
 105              	.L14:
  47:.\main.c      ****         ProcessChar(Rx_Left_UartGetChar(), LEFT);
 106              		.loc 1 47 0
 107 0006 FFF7FEFF 		bl	Rx_Left_UartGetChar
 108 000a 031C     		mov	r3, r0
 109 000c DBB2     		uxtb	r3, r3
 110 000e 181C     		mov	r0, r3
 111 0010 0021     		mov	r1, #0
 112 0012 FFF7FEFF 		bl	ProcessChar
 113              	.L13:
  46:.\main.c      ****     while (Rx_Left_SpiUartGetRxBufferSize()) {
 114              		.loc 1 46 0 discriminator 1
 115 0016 FFF7FEFF 		bl	Rx_Left_SpiUartGetRxBufferSize
 116 001a 031C     		mov	r3, r0
 117 001c 002B     		cmp	r3, #0
 118 001e F2D1     		bne	.L14
  48:.\main.c      ****     }
  49:.\main.c      ****     Rx_Left_ClearRxInterruptSource(Rx_Left_INTR_RX_ALL);
 119              		.loc 1 49 0
 120 0020 024B     		ldr	r3, .L15
 121 0022 034A     		ldr	r2, .L15+4
ARM GAS  C:\Users\MATTHE~1\AppData\Local\Temp\ccW3t5Wr.s 			page 4


 122 0024 1A60     		str	r2, [r3]
  50:.\main.c      **** }
 123              		.loc 1 50 0
 124 0026 BD46     		mov	sp, r7
 125              		@ sp needed
 126 0028 80BD     		pop	{r7, pc}
 127              	.L16:
 128 002a C046     		.align	2
 129              	.L15:
 130 002c C00F0640 		.word	1074139072
 131 0030 ED0F0000 		.word	4077
 132              		.cfi_endproc
 133              	.LFE34:
 134              		.size	isr_Rx_Left_Int, .-isr_Rx_Left_Int
 135              		.section	.text.isr_Rx_Right_Int,"ax",%progbits
 136              		.align	2
 137              		.global	isr_Rx_Right_Int
 138              		.code	16
 139              		.thumb_func
 140              		.type	isr_Rx_Right_Int, %function
 141              	isr_Rx_Right_Int:
 142              	.LFB35:
  51:.\main.c      **** 
  52:.\main.c      **** CY_ISR_PROTO(isr_Rx_Right_Int);
  53:.\main.c      **** CY_ISR(isr_Rx_Right_Int) {
 143              		.loc 1 53 0
 144              		.cfi_startproc
 145 0000 80B5     		push	{r7, lr}
 146              		.cfi_def_cfa_offset 8
 147              		.cfi_offset 7, -8
 148              		.cfi_offset 14, -4
 149 0002 00AF     		add	r7, sp, #0
 150              		.cfi_def_cfa_register 7
  54:.\main.c      ****     while (Rx_Right_SpiUartGetRxBufferSize()) {
 151              		.loc 1 54 0
 152 0004 07E0     		b	.L18
 153              	.L19:
  55:.\main.c      ****         ProcessChar(Rx_Right_UartGetChar(), RIGHT);
 154              		.loc 1 55 0
 155 0006 FFF7FEFF 		bl	Rx_Right_UartGetChar
 156 000a 031C     		mov	r3, r0
 157 000c DBB2     		uxtb	r3, r3
 158 000e 181C     		mov	r0, r3
 159 0010 0121     		mov	r1, #1
 160 0012 FFF7FEFF 		bl	ProcessChar
 161              	.L18:
  54:.\main.c      ****     while (Rx_Right_SpiUartGetRxBufferSize()) {
 162              		.loc 1 54 0 discriminator 1
 163 0016 FFF7FEFF 		bl	Rx_Right_SpiUartGetRxBufferSize
 164 001a 031C     		mov	r3, r0
 165 001c 002B     		cmp	r3, #0
 166 001e F2D1     		bne	.L19
  56:.\main.c      ****     }
  57:.\main.c      ****     
  58:.\main.c      ****     Rx_Right_ClearRxInterruptSource(Rx_Right_INTR_RX_ALL);
 167              		.loc 1 58 0
 168 0020 024B     		ldr	r3, .L20
ARM GAS  C:\Users\MATTHE~1\AppData\Local\Temp\ccW3t5Wr.s 			page 5


 169 0022 034A     		ldr	r2, .L20+4
 170 0024 1A60     		str	r2, [r3]
  59:.\main.c      **** }
 171              		.loc 1 59 0
 172 0026 BD46     		mov	sp, r7
 173              		@ sp needed
 174 0028 80BD     		pop	{r7, pc}
 175              	.L21:
 176 002a C046     		.align	2
 177              	.L20:
 178 002c C00F0740 		.word	1074204608
 179 0030 ED0F0000 		.word	4077
 180              		.cfi_endproc
 181              	.LFE35:
 182              		.size	isr_Rx_Right_Int, .-isr_Rx_Right_Int
 183              		.section	.text.isr_Rx_Front_Int,"ax",%progbits
 184              		.align	2
 185              		.global	isr_Rx_Front_Int
 186              		.code	16
 187              		.thumb_func
 188              		.type	isr_Rx_Front_Int, %function
 189              	isr_Rx_Front_Int:
 190              	.LFB36:
  60:.\main.c      **** 
  61:.\main.c      **** CY_ISR_PROTO(isr_Rx_Front_Int);
  62:.\main.c      **** CY_ISR(isr_Rx_Front_Int) {
 191              		.loc 1 62 0
 192              		.cfi_startproc
 193 0000 80B5     		push	{r7, lr}
 194              		.cfi_def_cfa_offset 8
 195              		.cfi_offset 7, -8
 196              		.cfi_offset 14, -4
 197 0002 00AF     		add	r7, sp, #0
 198              		.cfi_def_cfa_register 7
  63:.\main.c      ****     while (Rx_Front_GetRxBufferSize()) {
 199              		.loc 1 63 0
 200 0004 06E0     		b	.L23
 201              	.L24:
  64:.\main.c      ****         ProcessChar(Rx_Front_GetChar(), FRONT);
 202              		.loc 1 64 0
 203 0006 FFF7FEFF 		bl	Rx_Front_GetChar
 204 000a 031C     		mov	r3, r0
 205 000c 181C     		mov	r0, r3
 206 000e 0321     		mov	r1, #3
 207 0010 FFF7FEFF 		bl	ProcessChar
 208              	.L23:
  63:.\main.c      ****     while (Rx_Front_GetRxBufferSize()) {
 209              		.loc 1 63 0 discriminator 1
 210 0014 FFF7FEFF 		bl	Rx_Front_GetRxBufferSize
 211 0018 031C     		mov	r3, r0
 212 001a 002B     		cmp	r3, #0
 213 001c F3D1     		bne	.L24
  65:.\main.c      ****     }
  66:.\main.c      **** }
 214              		.loc 1 66 0
 215 001e BD46     		mov	sp, r7
 216              		@ sp needed
ARM GAS  C:\Users\MATTHE~1\AppData\Local\Temp\ccW3t5Wr.s 			page 6


 217 0020 80BD     		pop	{r7, pc}
 218              		.cfi_endproc
 219              	.LFE36:
 220              		.size	isr_Rx_Front_Int, .-isr_Rx_Front_Int
 221 0022 C046     		.section	.text.isr_Rx_Back_Int,"ax",%progbits
 222              		.align	2
 223              		.global	isr_Rx_Back_Int
 224              		.code	16
 225              		.thumb_func
 226              		.type	isr_Rx_Back_Int, %function
 227              	isr_Rx_Back_Int:
 228              	.LFB37:
  67:.\main.c      **** 
  68:.\main.c      **** CY_ISR_PROTO(isr_Rx_Back_Int);
  69:.\main.c      **** CY_ISR(isr_Rx_Back_Int) {
 229              		.loc 1 69 0
 230              		.cfi_startproc
 231 0000 80B5     		push	{r7, lr}
 232              		.cfi_def_cfa_offset 8
 233              		.cfi_offset 7, -8
 234              		.cfi_offset 14, -4
 235 0002 00AF     		add	r7, sp, #0
 236              		.cfi_def_cfa_register 7
  70:.\main.c      ****     while (Rx_Back_GetRxBufferSize()) {
 237              		.loc 1 70 0
 238 0004 06E0     		b	.L26
 239              	.L27:
  71:.\main.c      ****         ProcessChar(Rx_Back_GetChar(), BACK);
 240              		.loc 1 71 0
 241 0006 FFF7FEFF 		bl	Rx_Back_GetChar
 242 000a 031C     		mov	r3, r0
 243 000c 181C     		mov	r0, r3
 244 000e 0221     		mov	r1, #2
 245 0010 FFF7FEFF 		bl	ProcessChar
 246              	.L26:
  70:.\main.c      ****     while (Rx_Back_GetRxBufferSize()) {
 247              		.loc 1 70 0 discriminator 1
 248 0014 FFF7FEFF 		bl	Rx_Back_GetRxBufferSize
 249 0018 031C     		mov	r3, r0
 250 001a 002B     		cmp	r3, #0
 251 001c F3D1     		bne	.L27
  72:.\main.c      ****     }
  73:.\main.c      **** }
 252              		.loc 1 73 0
 253 001e BD46     		mov	sp, r7
 254              		@ sp needed
 255 0020 80BD     		pop	{r7, pc}
 256              		.cfi_endproc
 257              	.LFE37:
 258              		.size	isr_Rx_Back_Int, .-isr_Rx_Back_Int
 259 0022 C046     		.section	.text.main,"ax",%progbits
 260              		.align	2
 261              		.global	main
 262              		.code	16
 263              		.thumb_func
 264              		.type	main, %function
 265              	main:
ARM GAS  C:\Users\MATTHE~1\AppData\Local\Temp\ccW3t5Wr.s 			page 7


 266              	.LFB38:
  74:.\main.c      **** 
  75:.\main.c      **** int main()
  76:.\main.c      **** {
 267              		.loc 1 76 0
 268              		.cfi_startproc
 269 0000 90B5     		push	{r4, r7, lr}
 270              		.cfi_def_cfa_offset 12
 271              		.cfi_offset 4, -12
 272              		.cfi_offset 7, -8
 273              		.cfi_offset 14, -4
 274 0002 83B0     		sub	sp, sp, #12
 275              		.cfi_def_cfa_offset 24
 276 0004 00AF     		add	r7, sp, #0
 277              		.cfi_def_cfa_register 7
  77:.\main.c      ****     Rx_Front_Start();
 278              		.loc 1 77 0
 279 0006 FFF7FEFF 		bl	Rx_Front_Start
  78:.\main.c      ****     Rx_Left_Start();
 280              		.loc 1 78 0
 281 000a FFF7FEFF 		bl	Rx_Left_Start
  79:.\main.c      ****     Rx_Back_Start();
 282              		.loc 1 79 0
 283 000e FFF7FEFF 		bl	Rx_Back_Start
  80:.\main.c      ****     Rx_Right_Start();
 284              		.loc 1 80 0
 285 0012 FFF7FEFF 		bl	Rx_Right_Start
  81:.\main.c      ****     
  82:.\main.c      ****     Rx_Left_SetCustomInterruptHandler(isr_Rx_Left_Int);
 286              		.loc 1 82 0
 287 0016 244B     		ldr	r3, .L35
 288 0018 181C     		mov	r0, r3
 289 001a FFF7FEFF 		bl	Rx_Left_SetCustomInterruptHandler
  83:.\main.c      ****     Rx_Right_SetCustomInterruptHandler(isr_Rx_Right_Int);
 290              		.loc 1 83 0
 291 001e 234B     		ldr	r3, .L35+4
 292 0020 181C     		mov	r0, r3
 293 0022 FFF7FEFF 		bl	Rx_Right_SetCustomInterruptHandler
  84:.\main.c      ****     isr_Rx_Front_StartEx(isr_Rx_Front_Int);
 294              		.loc 1 84 0
 295 0026 224B     		ldr	r3, .L35+8
 296 0028 181C     		mov	r0, r3
 297 002a FFF7FEFF 		bl	isr_Rx_Front_StartEx
  85:.\main.c      ****     isr_Rx_Back_StartEx(isr_Rx_Back_Int);
 298              		.loc 1 85 0
 299 002e 214B     		ldr	r3, .L35+12
 300 0030 181C     		mov	r0, r3
 301 0032 FFF7FEFF 		bl	isr_Rx_Back_StartEx
  86:.\main.c      ****     
  87:.\main.c      ****     CyGlobalIntEnable;
 302              		.loc 1 87 0
 303              	@ 87 ".\main.c" 1
 304 0036 62B6     		CPSIE   i
 305              	@ 0 "" 2
  88:.\main.c      ****     
  89:.\main.c      ****     uint8 prev = -1;
 306              		.loc 1 89 0
ARM GAS  C:\Users\MATTHE~1\AppData\Local\Temp\ccW3t5Wr.s 			page 8


 307              		.code	16
 308 0038 FB1D     		add	r3, r7, #7
 309 003a FF22     		mov	r2, #255
 310 003c 1A70     		strb	r2, [r3]
 311              	.L34:
 312              	.LBB2:
  90:.\main.c      ****     for(;;) {
  91:.\main.c      ****         uint8 pos = Button_Read();
 313              		.loc 1 91 0
 314 003e BC1D     		add	r4, r7, #6
 315 0040 FFF7FEFF 		bl	Button_Read
 316 0044 031C     		mov	r3, r0
 317 0046 2370     		strb	r3, [r4]
  92:.\main.c      ****         if (pos != prev) {
 318              		.loc 1 92 0
 319 0048 BA1D     		add	r2, r7, #6
 320 004a FB1D     		add	r3, r7, #7
 321 004c 1278     		ldrb	r2, [r2]
 322 004e 1B78     		ldrb	r3, [r3]
 323 0050 9A42     		cmp	r2, r3
 324 0052 0DD0     		beq	.L29
  93:.\main.c      ****             Tx_PutChar(pos ? '1' : '0');
 325              		.loc 1 93 0
 326 0054 BB1D     		add	r3, r7, #6
 327 0056 1B78     		ldrb	r3, [r3]
 328 0058 002B     		cmp	r3, #0
 329 005a 01D0     		beq	.L30
 330              		.loc 1 93 0 is_stmt 0 discriminator 1
 331 005c 3123     		mov	r3, #49
 332 005e 00E0     		b	.L31
 333              	.L30:
 334              		.loc 1 93 0 discriminator 2
 335 0060 3023     		mov	r3, #48
 336              	.L31:
 337              		.loc 1 93 0 discriminator 3
 338 0062 181C     		mov	r0, r3
 339 0064 FFF7FEFF 		bl	Rx_Right_SpiUartWriteTxData
  94:.\main.c      ****             prev = pos;
 340              		.loc 1 94 0 is_stmt 1 discriminator 3
 341 0068 FB1D     		add	r3, r7, #7
 342 006a BA1D     		add	r2, r7, #6
 343 006c 1278     		ldrb	r2, [r2]
 344 006e 1A70     		strb	r2, [r3]
 345              	.L29:
  95:.\main.c      ****         }
  96:.\main.c      ****         
  97:.\main.c      ****         uint8 frontPins = Rx_Front_Pins_Read();
 346              		.loc 1 97 0
 347 0070 7C1D     		add	r4, r7, #5
 348 0072 FFF7FEFF 		bl	Rx_Front_Pins_Read
 349 0076 031C     		mov	r3, r0
 350 0078 2370     		strb	r3, [r4]
  98:.\main.c      ****         if (frontPins != 0) {
 351              		.loc 1 98 0
 352 007a 7B1D     		add	r3, r7, #5
 353 007c 1B78     		ldrb	r3, [r3]
 354 007e 002B     		cmp	r3, #0
ARM GAS  C:\Users\MATTHE~1\AppData\Local\Temp\ccW3t5Wr.s 			page 9


 355 0080 03D0     		beq	.L32
  99:.\main.c      ****             m_orientation[FRONT] = frontPins;
 356              		.loc 1 99 0
 357 0082 0D4B     		ldr	r3, .L35+16
 358 0084 7A1D     		add	r2, r7, #5
 359 0086 1278     		ldrb	r2, [r2]
 360 0088 DA70     		strb	r2, [r3, #3]
 361              	.L32:
 100:.\main.c      ****         }
 101:.\main.c      ****         
 102:.\main.c      ****         uint8 backPins = Rx_Back_Pins_Read();
 362              		.loc 1 102 0
 363 008a 3C1D     		add	r4, r7, #4
 364 008c FFF7FEFF 		bl	Rx_Back_Pins_Read
 365 0090 031C     		mov	r3, r0
 366 0092 2370     		strb	r3, [r4]
 103:.\main.c      ****         if (backPins != 0) {
 367              		.loc 1 103 0
 368 0094 3B1D     		add	r3, r7, #4
 369 0096 1B78     		ldrb	r3, [r3]
 370 0098 002B     		cmp	r3, #0
 371 009a 04D0     		beq	.L33
 104:.\main.c      ****             m_orientation[BACK] = backPins;
 372              		.loc 1 104 0
 373 009c 064B     		ldr	r3, .L35+16
 374 009e 3A1D     		add	r2, r7, #4
 375 00a0 1278     		ldrb	r2, [r2]
 376 00a2 9A70     		strb	r2, [r3, #2]
 377              	.LBE2:
 105:.\main.c      ****         }
 106:.\main.c      ****     }
 378              		.loc 1 106 0
 379 00a4 CBE7     		b	.L34
 380              	.L33:
 381 00a6 CAE7     		b	.L34
 382              	.L36:
 383              		.align	2
 384              	.L35:
 385 00a8 00000000 		.word	isr_Rx_Left_Int
 386 00ac 00000000 		.word	isr_Rx_Right_Int
 387 00b0 00000000 		.word	isr_Rx_Front_Int
 388 00b4 00000000 		.word	isr_Rx_Back_Int
 389 00b8 00000000 		.word	m_orientation
 390              		.cfi_endproc
 391              	.LFE38:
 392              		.size	main, .-main
 393              		.text
 394              	.Letext0:
 395              		.file 2 ".\\Generated_Source\\PSoC4/cytypes.h"