ARM GAS  C:\Users\MATTHE~1\AppData\Local\Temp\ccJNR70x.s 			page 1


   1              		.cpu cortex-m0
   2              		.fpu softvfp
   3              		.eabi_attribute 20, 1
   4              		.eabi_attribute 21, 1
   5              		.eabi_attribute 23, 3
   6              		.eabi_attribute 24, 1
   7              		.eabi_attribute 25, 1
   8              		.eabi_attribute 26, 1
   9              		.eabi_attribute 30, 6
  10              		.eabi_attribute 34, 0
  11              		.eabi_attribute 18, 4
  12              		.code	16
  13              		.file	"Rx_Front_Pins.c"
  14              		.text
  15              	.Ltext0:
  16              		.cfi_sections	.debug_frame
  17              		.section	.text.Rx_Front_Pins_Write,"ax",%progbits
  18              		.align	2
  19              		.global	Rx_Front_Pins_Write
  20              		.code	16
  21              		.thumb_func
  22              		.type	Rx_Front_Pins_Write, %function
  23              	Rx_Front_Pins_Write:
  24              	.LFB0:
  25              		.file 1 ".\\Generated_Source\\PSoC4\\Rx_Front_Pins.c"
   1:.\Generated_Source\PSoC4/Rx_Front_Pins.c **** /*******************************************************************************
   2:.\Generated_Source\PSoC4/Rx_Front_Pins.c **** * File Name: Rx_Front_Pins.c  
   3:.\Generated_Source\PSoC4/Rx_Front_Pins.c **** * Version 2.10
   4:.\Generated_Source\PSoC4/Rx_Front_Pins.c **** *
   5:.\Generated_Source\PSoC4/Rx_Front_Pins.c **** * Description:
   6:.\Generated_Source\PSoC4/Rx_Front_Pins.c **** *  This file contains API to enable firmware control of a Pins component.
   7:.\Generated_Source\PSoC4/Rx_Front_Pins.c **** *
   8:.\Generated_Source\PSoC4/Rx_Front_Pins.c **** * Note:
   9:.\Generated_Source\PSoC4/Rx_Front_Pins.c **** *
  10:.\Generated_Source\PSoC4/Rx_Front_Pins.c **** ********************************************************************************
  11:.\Generated_Source\PSoC4/Rx_Front_Pins.c **** * Copyright 2008-2014, Cypress Semiconductor Corporation.  All rights reserved.
  12:.\Generated_Source\PSoC4/Rx_Front_Pins.c **** * You may use this file only in accordance with the license, terms, conditions, 
  13:.\Generated_Source\PSoC4/Rx_Front_Pins.c **** * disclaimers, and limitations in the end user license agreement accompanying 
  14:.\Generated_Source\PSoC4/Rx_Front_Pins.c **** * the software package with which this file was provided.
  15:.\Generated_Source\PSoC4/Rx_Front_Pins.c **** *******************************************************************************/
  16:.\Generated_Source\PSoC4/Rx_Front_Pins.c **** 
  17:.\Generated_Source\PSoC4/Rx_Front_Pins.c **** #include "cytypes.h"
  18:.\Generated_Source\PSoC4/Rx_Front_Pins.c **** #include "Rx_Front_Pins.h"
  19:.\Generated_Source\PSoC4/Rx_Front_Pins.c **** 
  20:.\Generated_Source\PSoC4/Rx_Front_Pins.c **** #define SetP4PinDriveMode(shift, mode)  \
  21:.\Generated_Source\PSoC4/Rx_Front_Pins.c ****     do { \
  22:.\Generated_Source\PSoC4/Rx_Front_Pins.c ****         Rx_Front_Pins_PC =   (Rx_Front_Pins_PC & \
  23:.\Generated_Source\PSoC4/Rx_Front_Pins.c ****                                 (uint32)(~(uint32)(Rx_Front_Pins_DRIVE_MODE_IND_MASK << (Rx_Front_P
  24:.\Generated_Source\PSoC4/Rx_Front_Pins.c ****                                 (uint32)((uint32)(mode) << (Rx_Front_Pins_DRIVE_MODE_BITS * (shift)
  25:.\Generated_Source\PSoC4/Rx_Front_Pins.c ****     } while (0)
  26:.\Generated_Source\PSoC4/Rx_Front_Pins.c **** 
  27:.\Generated_Source\PSoC4/Rx_Front_Pins.c **** 
  28:.\Generated_Source\PSoC4/Rx_Front_Pins.c **** /*******************************************************************************
  29:.\Generated_Source\PSoC4/Rx_Front_Pins.c **** * Function Name: Rx_Front_Pins_Write
  30:.\Generated_Source\PSoC4/Rx_Front_Pins.c **** ********************************************************************************
  31:.\Generated_Source\PSoC4/Rx_Front_Pins.c **** *
  32:.\Generated_Source\PSoC4/Rx_Front_Pins.c **** * Summary:
ARM GAS  C:\Users\MATTHE~1\AppData\Local\Temp\ccJNR70x.s 			page 2


  33:.\Generated_Source\PSoC4/Rx_Front_Pins.c **** *  Assign a new value to the digital port's data output register.  
  34:.\Generated_Source\PSoC4/Rx_Front_Pins.c **** *
  35:.\Generated_Source\PSoC4/Rx_Front_Pins.c **** * Parameters:  
  36:.\Generated_Source\PSoC4/Rx_Front_Pins.c **** *  prtValue:  The value to be assigned to the Digital Port. 
  37:.\Generated_Source\PSoC4/Rx_Front_Pins.c **** *
  38:.\Generated_Source\PSoC4/Rx_Front_Pins.c **** * Return: 
  39:.\Generated_Source\PSoC4/Rx_Front_Pins.c **** *  None 
  40:.\Generated_Source\PSoC4/Rx_Front_Pins.c **** *  
  41:.\Generated_Source\PSoC4/Rx_Front_Pins.c **** *******************************************************************************/
  42:.\Generated_Source\PSoC4/Rx_Front_Pins.c **** void Rx_Front_Pins_Write(uint8 value) 
  43:.\Generated_Source\PSoC4/Rx_Front_Pins.c **** {
  26              		.loc 1 43 0
  27              		.cfi_startproc
  28 0000 80B5     		push	{r7, lr}
  29              		.cfi_def_cfa_offset 8
  30              		.cfi_offset 7, -8
  31              		.cfi_offset 14, -4
  32 0002 84B0     		sub	sp, sp, #16
  33              		.cfi_def_cfa_offset 24
  34 0004 00AF     		add	r7, sp, #0
  35              		.cfi_def_cfa_register 7
  36 0006 021C     		mov	r2, r0
  37 0008 FB1D     		add	r3, r7, #7
  38 000a 1A70     		strb	r2, [r3]
  44:.\Generated_Source\PSoC4/Rx_Front_Pins.c ****     uint8 drVal = (uint8)(Rx_Front_Pins_DR & (uint8)(~Rx_Front_Pins_MASK));
  39              		.loc 1 44 0
  40 000c 0D4B     		ldr	r3, .L2
  41 000e 1B68     		ldr	r3, [r3]
  42 0010 D9B2     		uxtb	r1, r3
  43 0012 3B1C     		mov	r3, r7
  44 0014 0F33     		add	r3, r3, #15
  45 0016 0F22     		mov	r2, #15
  46 0018 0A40     		and	r2, r1
  47 001a 1A70     		strb	r2, [r3]
  45:.\Generated_Source\PSoC4/Rx_Front_Pins.c ****     drVal = (drVal | ((uint8)(value << Rx_Front_Pins_SHIFT) & Rx_Front_Pins_MASK));
  48              		.loc 1 45 0
  49 001c FB1D     		add	r3, r7, #7
  50 001e 1B78     		ldrb	r3, [r3]
  51 0020 1B01     		lsl	r3, r3, #4
  52 0022 D9B2     		uxtb	r1, r3
  53 0024 3B1C     		mov	r3, r7
  54 0026 0F33     		add	r3, r3, #15
  55 0028 3A1C     		mov	r2, r7
  56 002a 0F32     		add	r2, r2, #15
  57 002c 1278     		ldrb	r2, [r2]
  58 002e 0A43     		orr	r2, r1
  59 0030 1A70     		strb	r2, [r3]
  46:.\Generated_Source\PSoC4/Rx_Front_Pins.c ****     Rx_Front_Pins_DR = (uint32)drVal;
  60              		.loc 1 46 0
  61 0032 044B     		ldr	r3, .L2
  62 0034 3A1C     		mov	r2, r7
  63 0036 0F32     		add	r2, r2, #15
  64 0038 1278     		ldrb	r2, [r2]
  65 003a 1A60     		str	r2, [r3]
  47:.\Generated_Source\PSoC4/Rx_Front_Pins.c **** }
  66              		.loc 1 47 0
  67 003c BD46     		mov	sp, r7
ARM GAS  C:\Users\MATTHE~1\AppData\Local\Temp\ccJNR70x.s 			page 3


  68 003e 04B0     		add	sp, sp, #16
  69              		@ sp needed
  70 0040 80BD     		pop	{r7, pc}
  71              	.L3:
  72 0042 C046     		.align	2
  73              	.L2:
  74 0044 00020440 		.word	1074004480
  75              		.cfi_endproc
  76              	.LFE0:
  77              		.size	Rx_Front_Pins_Write, .-Rx_Front_Pins_Write
  78              		.section	.text.Rx_Front_Pins_SetDriveMode,"ax",%progbits
  79              		.align	2
  80              		.global	Rx_Front_Pins_SetDriveMode
  81              		.code	16
  82              		.thumb_func
  83              		.type	Rx_Front_Pins_SetDriveMode, %function
  84              	Rx_Front_Pins_SetDriveMode:
  85              	.LFB1:
  48:.\Generated_Source\PSoC4/Rx_Front_Pins.c **** 
  49:.\Generated_Source\PSoC4/Rx_Front_Pins.c **** 
  50:.\Generated_Source\PSoC4/Rx_Front_Pins.c **** /*******************************************************************************
  51:.\Generated_Source\PSoC4/Rx_Front_Pins.c **** * Function Name: Rx_Front_Pins_SetDriveMode
  52:.\Generated_Source\PSoC4/Rx_Front_Pins.c **** ********************************************************************************
  53:.\Generated_Source\PSoC4/Rx_Front_Pins.c **** *
  54:.\Generated_Source\PSoC4/Rx_Front_Pins.c **** * Summary:
  55:.\Generated_Source\PSoC4/Rx_Front_Pins.c **** *  Change the drive mode on the pins of the port.
  56:.\Generated_Source\PSoC4/Rx_Front_Pins.c **** * 
  57:.\Generated_Source\PSoC4/Rx_Front_Pins.c **** * Parameters:  
  58:.\Generated_Source\PSoC4/Rx_Front_Pins.c **** *  mode:  Change the pins to one of the following drive modes.
  59:.\Generated_Source\PSoC4/Rx_Front_Pins.c **** *
  60:.\Generated_Source\PSoC4/Rx_Front_Pins.c **** *  Rx_Front_Pins_DM_STRONG     Strong Drive 
  61:.\Generated_Source\PSoC4/Rx_Front_Pins.c **** *  Rx_Front_Pins_DM_OD_HI      Open Drain, Drives High 
  62:.\Generated_Source\PSoC4/Rx_Front_Pins.c **** *  Rx_Front_Pins_DM_OD_LO      Open Drain, Drives Low 
  63:.\Generated_Source\PSoC4/Rx_Front_Pins.c **** *  Rx_Front_Pins_DM_RES_UP     Resistive Pull Up 
  64:.\Generated_Source\PSoC4/Rx_Front_Pins.c **** *  Rx_Front_Pins_DM_RES_DWN    Resistive Pull Down 
  65:.\Generated_Source\PSoC4/Rx_Front_Pins.c **** *  Rx_Front_Pins_DM_RES_UPDWN  Resistive Pull Up/Down 
  66:.\Generated_Source\PSoC4/Rx_Front_Pins.c **** *  Rx_Front_Pins_DM_DIG_HIZ    High Impedance Digital 
  67:.\Generated_Source\PSoC4/Rx_Front_Pins.c **** *  Rx_Front_Pins_DM_ALG_HIZ    High Impedance Analog 
  68:.\Generated_Source\PSoC4/Rx_Front_Pins.c **** *
  69:.\Generated_Source\PSoC4/Rx_Front_Pins.c **** * Return: 
  70:.\Generated_Source\PSoC4/Rx_Front_Pins.c **** *  None
  71:.\Generated_Source\PSoC4/Rx_Front_Pins.c **** *
  72:.\Generated_Source\PSoC4/Rx_Front_Pins.c **** *******************************************************************************/
  73:.\Generated_Source\PSoC4/Rx_Front_Pins.c **** void Rx_Front_Pins_SetDriveMode(uint8 mode) 
  74:.\Generated_Source\PSoC4/Rx_Front_Pins.c **** {
  86              		.loc 1 74 0
  87              		.cfi_startproc
  88 0000 80B5     		push	{r7, lr}
  89              		.cfi_def_cfa_offset 8
  90              		.cfi_offset 7, -8
  91              		.cfi_offset 14, -4
  92 0002 82B0     		sub	sp, sp, #8
  93              		.cfi_def_cfa_offset 16
  94 0004 00AF     		add	r7, sp, #0
  95              		.cfi_def_cfa_register 7
  96 0006 021C     		mov	r2, r0
  97 0008 FB1D     		add	r3, r7, #7
ARM GAS  C:\Users\MATTHE~1\AppData\Local\Temp\ccJNR70x.s 			page 4


  98 000a 1A70     		strb	r2, [r3]
  75:.\Generated_Source\PSoC4/Rx_Front_Pins.c **** 	SetP4PinDriveMode(Rx_Front_Pins__0__SHIFT, mode);
  99              		.loc 1 75 0
 100 000c 154B     		ldr	r3, .L5
 101 000e 154A     		ldr	r2, .L5
 102 0010 1168     		ldr	r1, [r2]
 103 0012 154A     		ldr	r2, .L5+4
 104 0014 1140     		and	r1, r2
 105 0016 FA1D     		add	r2, r7, #7
 106 0018 1278     		ldrb	r2, [r2]
 107 001a 1203     		lsl	r2, r2, #12
 108 001c 0A43     		orr	r2, r1
 109 001e 1A60     		str	r2, [r3]
  76:.\Generated_Source\PSoC4/Rx_Front_Pins.c **** 	SetP4PinDriveMode(Rx_Front_Pins__1__SHIFT, mode);
 110              		.loc 1 76 0
 111 0020 104B     		ldr	r3, .L5
 112 0022 104A     		ldr	r2, .L5
 113 0024 1168     		ldr	r1, [r2]
 114 0026 114A     		ldr	r2, .L5+8
 115 0028 1140     		and	r1, r2
 116 002a FA1D     		add	r2, r7, #7
 117 002c 1278     		ldrb	r2, [r2]
 118 002e D203     		lsl	r2, r2, #15
 119 0030 0A43     		orr	r2, r1
 120 0032 1A60     		str	r2, [r3]
  77:.\Generated_Source\PSoC4/Rx_Front_Pins.c **** 	SetP4PinDriveMode(Rx_Front_Pins__2__SHIFT, mode);
 121              		.loc 1 77 0
 122 0034 0B4B     		ldr	r3, .L5
 123 0036 0B4A     		ldr	r2, .L5
 124 0038 1168     		ldr	r1, [r2]
 125 003a 0D4A     		ldr	r2, .L5+12
 126 003c 1140     		and	r1, r2
 127 003e FA1D     		add	r2, r7, #7
 128 0040 1278     		ldrb	r2, [r2]
 129 0042 9204     		lsl	r2, r2, #18
 130 0044 0A43     		orr	r2, r1
 131 0046 1A60     		str	r2, [r3]
  78:.\Generated_Source\PSoC4/Rx_Front_Pins.c **** 	SetP4PinDriveMode(Rx_Front_Pins__3__SHIFT, mode);
 132              		.loc 1 78 0
 133 0048 064B     		ldr	r3, .L5
 134 004a 064A     		ldr	r2, .L5
 135 004c 1168     		ldr	r1, [r2]
 136 004e 094A     		ldr	r2, .L5+16
 137 0050 1140     		and	r1, r2
 138 0052 FA1D     		add	r2, r7, #7
 139 0054 1278     		ldrb	r2, [r2]
 140 0056 5205     		lsl	r2, r2, #21
 141 0058 0A43     		orr	r2, r1
 142 005a 1A60     		str	r2, [r3]
  79:.\Generated_Source\PSoC4/Rx_Front_Pins.c **** }
 143              		.loc 1 79 0
 144 005c BD46     		mov	sp, r7
 145 005e 02B0     		add	sp, sp, #8
 146              		@ sp needed
 147 0060 80BD     		pop	{r7, pc}
 148              	.L6:
 149 0062 C046     		.align	2
ARM GAS  C:\Users\MATTHE~1\AppData\Local\Temp\ccJNR70x.s 			page 5


 150              	.L5:
 151 0064 08020440 		.word	1074004488
 152 0068 FF8FFFFF 		.word	-28673
 153 006c FF7FFCFF 		.word	-229377
 154 0070 FFFFE3FF 		.word	-1835009
 155 0074 FFFF1FFF 		.word	-14680065
 156              		.cfi_endproc
 157              	.LFE1:
 158              		.size	Rx_Front_Pins_SetDriveMode, .-Rx_Front_Pins_SetDriveMode
 159              		.section	.text.Rx_Front_Pins_Read,"ax",%progbits
 160              		.align	2
 161              		.global	Rx_Front_Pins_Read
 162              		.code	16
 163              		.thumb_func
 164              		.type	Rx_Front_Pins_Read, %function
 165              	Rx_Front_Pins_Read:
 166              	.LFB2:
  80:.\Generated_Source\PSoC4/Rx_Front_Pins.c **** 
  81:.\Generated_Source\PSoC4/Rx_Front_Pins.c **** 
  82:.\Generated_Source\PSoC4/Rx_Front_Pins.c **** /*******************************************************************************
  83:.\Generated_Source\PSoC4/Rx_Front_Pins.c **** * Function Name: Rx_Front_Pins_Read
  84:.\Generated_Source\PSoC4/Rx_Front_Pins.c **** ********************************************************************************
  85:.\Generated_Source\PSoC4/Rx_Front_Pins.c **** *
  86:.\Generated_Source\PSoC4/Rx_Front_Pins.c **** * Summary:
  87:.\Generated_Source\PSoC4/Rx_Front_Pins.c **** *  Read the current value on the pins of the Digital Port in right justified 
  88:.\Generated_Source\PSoC4/Rx_Front_Pins.c **** *  form.
  89:.\Generated_Source\PSoC4/Rx_Front_Pins.c **** *
  90:.\Generated_Source\PSoC4/Rx_Front_Pins.c **** * Parameters:  
  91:.\Generated_Source\PSoC4/Rx_Front_Pins.c **** *  None 
  92:.\Generated_Source\PSoC4/Rx_Front_Pins.c **** *
  93:.\Generated_Source\PSoC4/Rx_Front_Pins.c **** * Return: 
  94:.\Generated_Source\PSoC4/Rx_Front_Pins.c **** *  Returns the current value of the Digital Port as a right justified number
  95:.\Generated_Source\PSoC4/Rx_Front_Pins.c **** *  
  96:.\Generated_Source\PSoC4/Rx_Front_Pins.c **** * Note:
  97:.\Generated_Source\PSoC4/Rx_Front_Pins.c **** *  Macro Rx_Front_Pins_ReadPS calls this function. 
  98:.\Generated_Source\PSoC4/Rx_Front_Pins.c **** *  
  99:.\Generated_Source\PSoC4/Rx_Front_Pins.c **** *******************************************************************************/
 100:.\Generated_Source\PSoC4/Rx_Front_Pins.c **** uint8 Rx_Front_Pins_Read(void) 
 101:.\Generated_Source\PSoC4/Rx_Front_Pins.c **** {
 167              		.loc 1 101 0
 168              		.cfi_startproc
 169 0000 80B5     		push	{r7, lr}
 170              		.cfi_def_cfa_offset 8
 171              		.cfi_offset 7, -8
 172              		.cfi_offset 14, -4
 173 0002 00AF     		add	r7, sp, #0
 174              		.cfi_def_cfa_register 7
 102:.\Generated_Source\PSoC4/Rx_Front_Pins.c ****     return (uint8)((Rx_Front_Pins_PS & Rx_Front_Pins_MASK) >> Rx_Front_Pins_SHIFT);
 175              		.loc 1 102 0
 176 0004 044B     		ldr	r3, .L9
 177 0006 1A68     		ldr	r2, [r3]
 178 0008 F023     		mov	r3, #240
 179 000a 1340     		and	r3, r2
 180 000c 1B09     		lsr	r3, r3, #4
 181 000e DBB2     		uxtb	r3, r3
 103:.\Generated_Source\PSoC4/Rx_Front_Pins.c **** }
 182              		.loc 1 103 0
ARM GAS  C:\Users\MATTHE~1\AppData\Local\Temp\ccJNR70x.s 			page 6


 183 0010 181C     		mov	r0, r3
 184 0012 BD46     		mov	sp, r7
 185              		@ sp needed
 186 0014 80BD     		pop	{r7, pc}
 187              	.L10:
 188 0016 C046     		.align	2
 189              	.L9:
 190 0018 04020440 		.word	1074004484
 191              		.cfi_endproc
 192              	.LFE2:
 193              		.size	Rx_Front_Pins_Read, .-Rx_Front_Pins_Read
 194              		.section	.text.Rx_Front_Pins_ReadDataReg,"ax",%progbits
 195              		.align	2
 196              		.global	Rx_Front_Pins_ReadDataReg
 197              		.code	16
 198              		.thumb_func
 199              		.type	Rx_Front_Pins_ReadDataReg, %function
 200              	Rx_Front_Pins_ReadDataReg:
 201              	.LFB3:
 104:.\Generated_Source\PSoC4/Rx_Front_Pins.c **** 
 105:.\Generated_Source\PSoC4/Rx_Front_Pins.c **** 
 106:.\Generated_Source\PSoC4/Rx_Front_Pins.c **** /*******************************************************************************
 107:.\Generated_Source\PSoC4/Rx_Front_Pins.c **** * Function Name: Rx_Front_Pins_ReadDataReg
 108:.\Generated_Source\PSoC4/Rx_Front_Pins.c **** ********************************************************************************
 109:.\Generated_Source\PSoC4/Rx_Front_Pins.c **** *
 110:.\Generated_Source\PSoC4/Rx_Front_Pins.c **** * Summary:
 111:.\Generated_Source\PSoC4/Rx_Front_Pins.c **** *  Read the current value assigned to a Digital Port's data output register
 112:.\Generated_Source\PSoC4/Rx_Front_Pins.c **** *
 113:.\Generated_Source\PSoC4/Rx_Front_Pins.c **** * Parameters:  
 114:.\Generated_Source\PSoC4/Rx_Front_Pins.c **** *  None 
 115:.\Generated_Source\PSoC4/Rx_Front_Pins.c **** *
 116:.\Generated_Source\PSoC4/Rx_Front_Pins.c **** * Return: 
 117:.\Generated_Source\PSoC4/Rx_Front_Pins.c **** *  Returns the current value assigned to the Digital Port's data output register
 118:.\Generated_Source\PSoC4/Rx_Front_Pins.c **** *  
 119:.\Generated_Source\PSoC4/Rx_Front_Pins.c **** *******************************************************************************/
 120:.\Generated_Source\PSoC4/Rx_Front_Pins.c **** uint8 Rx_Front_Pins_ReadDataReg(void) 
 121:.\Generated_Source\PSoC4/Rx_Front_Pins.c **** {
 202              		.loc 1 121 0
 203              		.cfi_startproc
 204 0000 80B5     		push	{r7, lr}
 205              		.cfi_def_cfa_offset 8
 206              		.cfi_offset 7, -8
 207              		.cfi_offset 14, -4
 208 0002 00AF     		add	r7, sp, #0
 209              		.cfi_def_cfa_register 7
 122:.\Generated_Source\PSoC4/Rx_Front_Pins.c ****     return (uint8)((Rx_Front_Pins_DR & Rx_Front_Pins_MASK) >> Rx_Front_Pins_SHIFT);
 210              		.loc 1 122 0
 211 0004 044B     		ldr	r3, .L13
 212 0006 1A68     		ldr	r2, [r3]
 213 0008 F023     		mov	r3, #240
 214 000a 1340     		and	r3, r2
 215 000c 1B09     		lsr	r3, r3, #4
 216 000e DBB2     		uxtb	r3, r3
 123:.\Generated_Source\PSoC4/Rx_Front_Pins.c **** }
 217              		.loc 1 123 0
 218 0010 181C     		mov	r0, r3
 219 0012 BD46     		mov	sp, r7
ARM GAS  C:\Users\MATTHE~1\AppData\Local\Temp\ccJNR70x.s 			page 7


 220              		@ sp needed
 221 0014 80BD     		pop	{r7, pc}
 222              	.L14:
 223 0016 C046     		.align	2
 224              	.L13:
 225 0018 00020440 		.word	1074004480
 226              		.cfi_endproc
 227              	.LFE3:
 228              		.size	Rx_Front_Pins_ReadDataReg, .-Rx_Front_Pins_ReadDataReg
 229              		.section	.text.Rx_Front_Pins_ClearInterrupt,"ax",%progbits
 230              		.align	2
 231              		.global	Rx_Front_Pins_ClearInterrupt
 232              		.code	16
 233              		.thumb_func
 234              		.type	Rx_Front_Pins_ClearInterrupt, %function
 235              	Rx_Front_Pins_ClearInterrupt:
 236              	.LFB4:
 124:.\Generated_Source\PSoC4/Rx_Front_Pins.c **** 
 125:.\Generated_Source\PSoC4/Rx_Front_Pins.c **** 
 126:.\Generated_Source\PSoC4/Rx_Front_Pins.c **** /* If Interrupts Are Enabled for this Pins component */ 
 127:.\Generated_Source\PSoC4/Rx_Front_Pins.c **** #if defined(Rx_Front_Pins_INTSTAT) 
 128:.\Generated_Source\PSoC4/Rx_Front_Pins.c **** 
 129:.\Generated_Source\PSoC4/Rx_Front_Pins.c ****     /*******************************************************************************
 130:.\Generated_Source\PSoC4/Rx_Front_Pins.c ****     * Function Name: Rx_Front_Pins_ClearInterrupt
 131:.\Generated_Source\PSoC4/Rx_Front_Pins.c ****     ********************************************************************************
 132:.\Generated_Source\PSoC4/Rx_Front_Pins.c ****     *
 133:.\Generated_Source\PSoC4/Rx_Front_Pins.c ****     * Summary:
 134:.\Generated_Source\PSoC4/Rx_Front_Pins.c ****     *  Clears any active interrupts attached to port and returns the value of the 
 135:.\Generated_Source\PSoC4/Rx_Front_Pins.c ****     *  interrupt status register.
 136:.\Generated_Source\PSoC4/Rx_Front_Pins.c ****     *
 137:.\Generated_Source\PSoC4/Rx_Front_Pins.c ****     * Parameters:  
 138:.\Generated_Source\PSoC4/Rx_Front_Pins.c ****     *  None 
 139:.\Generated_Source\PSoC4/Rx_Front_Pins.c ****     *
 140:.\Generated_Source\PSoC4/Rx_Front_Pins.c ****     * Return: 
 141:.\Generated_Source\PSoC4/Rx_Front_Pins.c ****     *  Returns the value of the interrupt status register
 142:.\Generated_Source\PSoC4/Rx_Front_Pins.c ****     *  
 143:.\Generated_Source\PSoC4/Rx_Front_Pins.c ****     *******************************************************************************/
 144:.\Generated_Source\PSoC4/Rx_Front_Pins.c ****     uint8 Rx_Front_Pins_ClearInterrupt(void) 
 145:.\Generated_Source\PSoC4/Rx_Front_Pins.c ****     {
 237              		.loc 1 145 0
 238              		.cfi_startproc
 239 0000 80B5     		push	{r7, lr}
 240              		.cfi_def_cfa_offset 8
 241              		.cfi_offset 7, -8
 242              		.cfi_offset 14, -4
 243 0002 82B0     		sub	sp, sp, #8
 244              		.cfi_def_cfa_offset 16
 245 0004 00AF     		add	r7, sp, #0
 246              		.cfi_def_cfa_register 7
 146:.\Generated_Source\PSoC4/Rx_Front_Pins.c **** 		uint8 maskedStatus = (uint8)(Rx_Front_Pins_INTSTAT & Rx_Front_Pins_MASK);
 247              		.loc 1 146 0
 248 0006 094B     		ldr	r3, .L17
 249 0008 1B68     		ldr	r3, [r3]
 250 000a DAB2     		uxtb	r2, r3
 251 000c FB1D     		add	r3, r7, #7
 252 000e 0F21     		mov	r1, #15
 253 0010 8A43     		bic	r2, r1
ARM GAS  C:\Users\MATTHE~1\AppData\Local\Temp\ccJNR70x.s 			page 8


 254 0012 1A70     		strb	r2, [r3]
 147:.\Generated_Source\PSoC4/Rx_Front_Pins.c **** 		Rx_Front_Pins_INTSTAT = maskedStatus;
 255              		.loc 1 147 0
 256 0014 054B     		ldr	r3, .L17
 257 0016 FA1D     		add	r2, r7, #7
 258 0018 1278     		ldrb	r2, [r2]
 259 001a 1A60     		str	r2, [r3]
 148:.\Generated_Source\PSoC4/Rx_Front_Pins.c ****         return maskedStatus >> Rx_Front_Pins_SHIFT;
 260              		.loc 1 148 0
 261 001c FB1D     		add	r3, r7, #7
 262 001e 1B78     		ldrb	r3, [r3]
 263 0020 1B09     		lsr	r3, r3, #4
 264 0022 DBB2     		uxtb	r3, r3
 149:.\Generated_Source\PSoC4/Rx_Front_Pins.c ****     }
 265              		.loc 1 149 0
 266 0024 181C     		mov	r0, r3
 267 0026 BD46     		mov	sp, r7
 268 0028 02B0     		add	sp, sp, #8
 269              		@ sp needed
 270 002a 80BD     		pop	{r7, pc}
 271              	.L18:
 272              		.align	2
 273              	.L17:
 274 002c 10020440 		.word	1074004496
 275              		.cfi_endproc
 276              	.LFE4:
 277              		.size	Rx_Front_Pins_ClearInterrupt, .-Rx_Front_Pins_ClearInterrupt
 278              		.text
 279              	.Letext0:
 280              		.file 2 ".\\Generated_Source\\PSoC4\\cytypes.h"