ARM GAS  C:\Users\MATTHE~1\AppData\Local\Temp\ccE43Ycc.s 			page 1


   1              		.cpu cortex-m0
   2              		.fpu softvfp
   3              		.eabi_attribute 20, 1
   4              		.eabi_attribute 21, 1
   5              		.eabi_attribute 23, 3
   6              		.eabi_attribute 24, 1
   7              		.eabi_attribute 25, 1
   8              		.eabi_attribute 26, 1
   9              		.eabi_attribute 30, 6
  10              		.eabi_attribute 34, 0
  11              		.eabi_attribute 18, 4
  12              		.code	16
  13              		.file	"UART_Tx.c"
  14              		.text
  15              	.Ltext0:
  16              		.cfi_sections	.debug_frame
  17              		.global	UART_Tx_pinNumber
  18              		.data
  19              		.align	2
  20              		.type	UART_Tx_pinNumber, %object
  21              		.size	UART_Tx_pinNumber, 4
  22              	UART_Tx_pinNumber:
  23 0000 01000000 		.word	1
  24              		.global	UART_Tx_pinPortNumber
  25              		.align	2
  26              		.type	UART_Tx_pinPortNumber, %object
  27              		.size	UART_Tx_pinPortNumber, 4
  28              	UART_Tx_pinPortNumber:
  29 0004 04000000 		.word	4
  30              		.global	UART_Tx_pinDrAdress
  31              		.align	2
  32              		.type	UART_Tx_pinDrAdress, %object
  33              		.size	UART_Tx_pinDrAdress, 4
  34              	UART_Tx_pinDrAdress:
  35 0008 00040440 		.word	1074004992
  36              		.section	.text.UART_Tx_Start,"ax",%progbits
  37              		.align	2
  38              		.global	UART_Tx_Start
  39              		.code	16
  40              		.thumb_func
  41              		.type	UART_Tx_Start, %function
  42              	UART_Tx_Start:
  43              	.LFB0:
  44              		.file 1 ".\\Generated_Source\\PSoC4\\UART_Tx.c"
   1:.\Generated_Source\PSoC4/UART_Tx.c **** /*******************************************************************************
   2:.\Generated_Source\PSoC4/UART_Tx.c **** * File Name: UART_Tx.c
   3:.\Generated_Source\PSoC4/UART_Tx.c **** * Version 1.30
   4:.\Generated_Source\PSoC4/UART_Tx.c **** *
   5:.\Generated_Source\PSoC4/UART_Tx.c **** * Description:
   6:.\Generated_Source\PSoC4/UART_Tx.c **** *  This file provides the source code to the API for the Software Transmit UART.
   7:.\Generated_Source\PSoC4/UART_Tx.c **** *
   8:.\Generated_Source\PSoC4/UART_Tx.c **** ********************************************************************************
   9:.\Generated_Source\PSoC4/UART_Tx.c **** * Copyright 2013-2014, Cypress Semiconductor Corporation.  All rights reserved.
  10:.\Generated_Source\PSoC4/UART_Tx.c **** * You may use this file only in accordance with the license, terms, conditions,
  11:.\Generated_Source\PSoC4/UART_Tx.c **** * disclaimers, and limitations in the end user license agreement accompanying
  12:.\Generated_Source\PSoC4/UART_Tx.c **** * the software package with which this file was provided.
  13:.\Generated_Source\PSoC4/UART_Tx.c **** *******************************************************************************/
ARM GAS  C:\Users\MATTHE~1\AppData\Local\Temp\ccE43Ycc.s 			page 2


  14:.\Generated_Source\PSoC4/UART_Tx.c **** 
  15:.\Generated_Source\PSoC4/UART_Tx.c **** #include "UART_Tx_PVT.h"
  16:.\Generated_Source\PSoC4/UART_Tx.c **** 
  17:.\Generated_Source\PSoC4/UART_Tx.c **** #if(UART_Tx_PIN_STATIC_MODE == 1u)
  18:.\Generated_Source\PSoC4/UART_Tx.c ****     uint32 UART_Tx_pinNumber = UART_Tx_PIN_NUMBER;
  19:.\Generated_Source\PSoC4/UART_Tx.c ****     uint32 UART_Tx_pinPortNumber = UART_Tx_PIN_PORT_NUMBER;
  20:.\Generated_Source\PSoC4/UART_Tx.c ****     #if(CY_PSOC3)
  21:.\Generated_Source\PSoC4/UART_Tx.c ****         uint32 pdata UART_Tx_pinDrAdress = UART_Tx_PIN_DR;
  22:.\Generated_Source\PSoC4/UART_Tx.c ****     #else
  23:.\Generated_Source\PSoC4/UART_Tx.c ****         uint32 UART_Tx_pinDrAdress = UART_Tx_PIN_DR;
  24:.\Generated_Source\PSoC4/UART_Tx.c ****     #endif /* (CY_PSOC3) */
  25:.\Generated_Source\PSoC4/UART_Tx.c **** #else
  26:.\Generated_Source\PSoC4/UART_Tx.c ****     uint32 UART_Tx_pinNumber;
  27:.\Generated_Source\PSoC4/UART_Tx.c ****     uint32 UART_Tx_pinPortNumber;
  28:.\Generated_Source\PSoC4/UART_Tx.c ****     #if(CY_PSOC3)
  29:.\Generated_Source\PSoC4/UART_Tx.c ****         uint32 pdata UART_Tx_pinDrAdress;
  30:.\Generated_Source\PSoC4/UART_Tx.c ****     #else
  31:.\Generated_Source\PSoC4/UART_Tx.c ****         uint32 UART_Tx_pinDrAdress;
  32:.\Generated_Source\PSoC4/UART_Tx.c ****     #endif /* (CY_PSOC3) */
  33:.\Generated_Source\PSoC4/UART_Tx.c **** #endif /* (UART_Tx_PIN_STATIC_MODE == 1u) */
  34:.\Generated_Source\PSoC4/UART_Tx.c **** 
  35:.\Generated_Source\PSoC4/UART_Tx.c **** 
  36:.\Generated_Source\PSoC4/UART_Tx.c **** #if(UART_Tx_PIN_STATIC_MODE == 1u)
  37:.\Generated_Source\PSoC4/UART_Tx.c ****     /*******************************************************************************
  38:.\Generated_Source\PSoC4/UART_Tx.c ****     * Function Name: UART_Tx_Start
  39:.\Generated_Source\PSoC4/UART_Tx.c ****     ********************************************************************************
  40:.\Generated_Source\PSoC4/UART_Tx.c ****     *
  41:.\Generated_Source\PSoC4/UART_Tx.c ****     * Summary:
  42:.\Generated_Source\PSoC4/UART_Tx.c ****     *  Empty function. Included for consistency with other
  43:.\Generated_Source\PSoC4/UART_Tx.c ****     *  components. This API is not available when PinAssignmentMethod
  44:.\Generated_Source\PSoC4/UART_Tx.c ****     *  is set to Dynamic.
  45:.\Generated_Source\PSoC4/UART_Tx.c ****     *
  46:.\Generated_Source\PSoC4/UART_Tx.c ****     * Parameters:
  47:.\Generated_Source\PSoC4/UART_Tx.c ****     *  None
  48:.\Generated_Source\PSoC4/UART_Tx.c ****     *
  49:.\Generated_Source\PSoC4/UART_Tx.c ****     * Return:
  50:.\Generated_Source\PSoC4/UART_Tx.c ****     *  None
  51:.\Generated_Source\PSoC4/UART_Tx.c ****     *
  52:.\Generated_Source\PSoC4/UART_Tx.c ****     *******************************************************************************/
  53:.\Generated_Source\PSoC4/UART_Tx.c ****     void UART_Tx_Start(void) 
  54:.\Generated_Source\PSoC4/UART_Tx.c ****     {
  45              		.loc 1 54 0
  46              		.cfi_startproc
  47 0000 80B5     		push	{r7, lr}
  48              		.cfi_def_cfa_offset 8
  49              		.cfi_offset 7, -8
  50              		.cfi_offset 14, -4
  51 0002 00AF     		add	r7, sp, #0
  52              		.cfi_def_cfa_register 7
  55:.\Generated_Source\PSoC4/UART_Tx.c **** 
  56:.\Generated_Source\PSoC4/UART_Tx.c ****     }
  53              		.loc 1 56 0
  54 0004 BD46     		mov	sp, r7
  55              		@ sp needed
  56 0006 80BD     		pop	{r7, pc}
  57              		.cfi_endproc
  58              	.LFE0:
ARM GAS  C:\Users\MATTHE~1\AppData\Local\Temp\ccE43Ycc.s 			page 3


  59              		.size	UART_Tx_Start, .-UART_Tx_Start
  60              		.section	.text.UART_Tx_Stop,"ax",%progbits
  61              		.align	2
  62              		.global	UART_Tx_Stop
  63              		.code	16
  64              		.thumb_func
  65              		.type	UART_Tx_Stop, %function
  66              	UART_Tx_Stop:
  67              	.LFB1:
  57:.\Generated_Source\PSoC4/UART_Tx.c **** #else
  58:.\Generated_Source\PSoC4/UART_Tx.c ****     /*******************************************************************************
  59:.\Generated_Source\PSoC4/UART_Tx.c ****     * Function Name: UART_Tx_StartEx
  60:.\Generated_Source\PSoC4/UART_Tx.c ****     ********************************************************************************
  61:.\Generated_Source\PSoC4/UART_Tx.c ****     *
  62:.\Generated_Source\PSoC4/UART_Tx.c ****     * Summary:
  63:.\Generated_Source\PSoC4/UART_Tx.c ****     *  Configures the SW Tx UART to use the pin specified
  64:.\Generated_Source\PSoC4/UART_Tx.c ****     *  by the parameters. This API is only available when
  65:.\Generated_Source\PSoC4/UART_Tx.c ****     *  PinAssignmentMethod is set to Dynamic.
  66:.\Generated_Source\PSoC4/UART_Tx.c ****     *
  67:.\Generated_Source\PSoC4/UART_Tx.c ****     * Parameters:
  68:.\Generated_Source\PSoC4/UART_Tx.c ****     *  port:  Port number for dynamic pin assignment
  69:.\Generated_Source\PSoC4/UART_Tx.c ****     *  pin:   Pin number for dynamic pin assignment
  70:.\Generated_Source\PSoC4/UART_Tx.c ****     *
  71:.\Generated_Source\PSoC4/UART_Tx.c ****     * Return:
  72:.\Generated_Source\PSoC4/UART_Tx.c ****     *  None
  73:.\Generated_Source\PSoC4/UART_Tx.c ****     *
  74:.\Generated_Source\PSoC4/UART_Tx.c ****     *******************************************************************************/
  75:.\Generated_Source\PSoC4/UART_Tx.c ****     void UART_Tx_StartEx(uint8 port, uint8 pin) 
  76:.\Generated_Source\PSoC4/UART_Tx.c ****     {
  77:.\Generated_Source\PSoC4/UART_Tx.c ****         uint32 portConfigAddr;
  78:.\Generated_Source\PSoC4/UART_Tx.c **** 
  79:.\Generated_Source\PSoC4/UART_Tx.c ****         #if (CY_PSOC4)
  80:.\Generated_Source\PSoC4/UART_Tx.c ****             uint32 portDataRegAddr;
  81:.\Generated_Source\PSoC4/UART_Tx.c ****         #endif /* (CY_PSOC4) */
  82:.\Generated_Source\PSoC4/UART_Tx.c **** 
  83:.\Generated_Source\PSoC4/UART_Tx.c ****         if ((pin <= UART_Tx_MAX_PIN_NUMBER) && (port <= UART_Tx_MAX_PORT_NUMBER))
  84:.\Generated_Source\PSoC4/UART_Tx.c ****         {
  85:.\Generated_Source\PSoC4/UART_Tx.c ****             #if (!CY_PSOC4)
  86:.\Generated_Source\PSoC4/UART_Tx.c ****                 portConfigAddr = UART_Tx_PORT_CNF_BASE;
  87:.\Generated_Source\PSoC4/UART_Tx.c ****                 portConfigAddr += ((uint32)port * (UART_Tx_MAX_PIN_NUMBER + 1u)) + pin;
  88:.\Generated_Source\PSoC4/UART_Tx.c ****                 CyPins_SetPinDriveMode(portConfigAddr, CY_PINS_DM_STRONG);
  89:.\Generated_Source\PSoC4/UART_Tx.c ****                 CyPins_SetPin(portConfigAddr);
  90:.\Generated_Source\PSoC4/UART_Tx.c ****                 UART_Tx_pinDrAdress = portConfigAddr;
  91:.\Generated_Source\PSoC4/UART_Tx.c ****             #else
  92:.\Generated_Source\PSoC4/UART_Tx.c ****                 portConfigAddr = UART_Tx_PORT_CNF_BASE + (UART_Tx_PORT_CNF_SIZE * port) +
  93:.\Generated_Source\PSoC4/UART_Tx.c ****                                                                                 UART_Tx_PORT_CNF_MO
  94:.\Generated_Source\PSoC4/UART_Tx.c ****                 CY_SYS_PINS_SET_DRIVE_MODE(portConfigAddr, pin, CY_SYS_PINS_DM_STRONG);
  95:.\Generated_Source\PSoC4/UART_Tx.c ****                 portDataRegAddr = UART_Tx_PORT_CNF_BASE + (UART_Tx_PORT_CNF_SIZE * port) +
  96:.\Generated_Source\PSoC4/UART_Tx.c ****                                                                                 UART_Tx_PORT_CNF_DR
  97:.\Generated_Source\PSoC4/UART_Tx.c ****                 CY_SYS_PINS_SET_PIN(portDataRegAddr, pin);
  98:.\Generated_Source\PSoC4/UART_Tx.c ****                 UART_Tx_pinDrAdress = portDataRegAddr;
  99:.\Generated_Source\PSoC4/UART_Tx.c ****             #endif /* (!CY_PSOC4) */
 100:.\Generated_Source\PSoC4/UART_Tx.c ****             UART_Tx_pinNumber = pin;
 101:.\Generated_Source\PSoC4/UART_Tx.c ****             UART_Tx_pinPortNumber = port;
 102:.\Generated_Source\PSoC4/UART_Tx.c ****         }
 103:.\Generated_Source\PSoC4/UART_Tx.c ****     }
 104:.\Generated_Source\PSoC4/UART_Tx.c **** #endif /* (UART_Tx_PIN_STATIC_MODE == 1u) */
ARM GAS  C:\Users\MATTHE~1\AppData\Local\Temp\ccE43Ycc.s 			page 4


 105:.\Generated_Source\PSoC4/UART_Tx.c **** 
 106:.\Generated_Source\PSoC4/UART_Tx.c **** 
 107:.\Generated_Source\PSoC4/UART_Tx.c **** /*******************************************************************************
 108:.\Generated_Source\PSoC4/UART_Tx.c **** * Function Name: UART_Tx_Stop
 109:.\Generated_Source\PSoC4/UART_Tx.c **** ********************************************************************************
 110:.\Generated_Source\PSoC4/UART_Tx.c **** *
 111:.\Generated_Source\PSoC4/UART_Tx.c **** * Summary:
 112:.\Generated_Source\PSoC4/UART_Tx.c **** *  Empty function. Included for consistency with other components.
 113:.\Generated_Source\PSoC4/UART_Tx.c **** *
 114:.\Generated_Source\PSoC4/UART_Tx.c **** * Parameters:
 115:.\Generated_Source\PSoC4/UART_Tx.c **** *  None
 116:.\Generated_Source\PSoC4/UART_Tx.c **** *
 117:.\Generated_Source\PSoC4/UART_Tx.c **** * Return:
 118:.\Generated_Source\PSoC4/UART_Tx.c **** *  None
 119:.\Generated_Source\PSoC4/UART_Tx.c **** *
 120:.\Generated_Source\PSoC4/UART_Tx.c **** *******************************************************************************/
 121:.\Generated_Source\PSoC4/UART_Tx.c **** void UART_Tx_Stop(void) 
 122:.\Generated_Source\PSoC4/UART_Tx.c **** {
  68              		.loc 1 122 0
  69              		.cfi_startproc
  70 0000 80B5     		push	{r7, lr}
  71              		.cfi_def_cfa_offset 8
  72              		.cfi_offset 7, -8
  73              		.cfi_offset 14, -4
  74 0002 00AF     		add	r7, sp, #0
  75              		.cfi_def_cfa_register 7
 123:.\Generated_Source\PSoC4/UART_Tx.c **** 
 124:.\Generated_Source\PSoC4/UART_Tx.c **** }
  76              		.loc 1 124 0
  77 0004 BD46     		mov	sp, r7
  78              		@ sp needed
  79 0006 80BD     		pop	{r7, pc}
  80              		.cfi_endproc
  81              	.LFE1:
  82              		.size	UART_Tx_Stop, .-UART_Tx_Stop
  83              		.section	.text.UART_Tx_PutString,"ax",%progbits
  84              		.align	2
  85              		.global	UART_Tx_PutString
  86              		.code	16
  87              		.thumb_func
  88              		.type	UART_Tx_PutString, %function
  89              	UART_Tx_PutString:
  90              	.LFB2:
 125:.\Generated_Source\PSoC4/UART_Tx.c **** 
 126:.\Generated_Source\PSoC4/UART_Tx.c **** 
 127:.\Generated_Source\PSoC4/UART_Tx.c **** /*******************************************************************************
 128:.\Generated_Source\PSoC4/UART_Tx.c **** * Function Name: UART_Tx_PutString
 129:.\Generated_Source\PSoC4/UART_Tx.c **** ********************************************************************************
 130:.\Generated_Source\PSoC4/UART_Tx.c **** *
 131:.\Generated_Source\PSoC4/UART_Tx.c **** * Summary:
 132:.\Generated_Source\PSoC4/UART_Tx.c **** *  Sends a NULL terminated string via the Tx pin.
 133:.\Generated_Source\PSoC4/UART_Tx.c **** *
 134:.\Generated_Source\PSoC4/UART_Tx.c **** * Parameters:
 135:.\Generated_Source\PSoC4/UART_Tx.c **** *  string: Pointer to the null terminated string to send
 136:.\Generated_Source\PSoC4/UART_Tx.c **** *
 137:.\Generated_Source\PSoC4/UART_Tx.c **** * Return:
 138:.\Generated_Source\PSoC4/UART_Tx.c **** *  None
ARM GAS  C:\Users\MATTHE~1\AppData\Local\Temp\ccE43Ycc.s 			page 5


 139:.\Generated_Source\PSoC4/UART_Tx.c **** *
 140:.\Generated_Source\PSoC4/UART_Tx.c **** *******************************************************************************/
 141:.\Generated_Source\PSoC4/UART_Tx.c **** void UART_Tx_PutString(const char8 string[]) 
 142:.\Generated_Source\PSoC4/UART_Tx.c **** {
  91              		.loc 1 142 0
  92              		.cfi_startproc
  93 0000 80B5     		push	{r7, lr}
  94              		.cfi_def_cfa_offset 8
  95              		.cfi_offset 7, -8
  96              		.cfi_offset 14, -4
  97 0002 84B0     		sub	sp, sp, #16
  98              		.cfi_def_cfa_offset 24
  99 0004 00AF     		add	r7, sp, #0
 100              		.cfi_def_cfa_register 7
 101 0006 7860     		str	r0, [r7, #4]
 143:.\Generated_Source\PSoC4/UART_Tx.c ****     uint8 stringIndex = 1u;
 102              		.loc 1 143 0
 103 0008 3B1C     		mov	r3, r7
 104 000a 0F33     		add	r3, r3, #15
 105 000c 0122     		mov	r2, #1
 106 000e 1A70     		strb	r2, [r3]
 144:.\Generated_Source\PSoC4/UART_Tx.c ****     char8 current = *string;
 107              		.loc 1 144 0
 108 0010 3B1C     		mov	r3, r7
 109 0012 0E33     		add	r3, r3, #14
 110 0014 7A68     		ldr	r2, [r7, #4]
 111 0016 1278     		ldrb	r2, [r2]
 112 0018 1A70     		strb	r2, [r3]
 145:.\Generated_Source\PSoC4/UART_Tx.c **** 
 146:.\Generated_Source\PSoC4/UART_Tx.c ****     /* Until null is reached, print next character */
 147:.\Generated_Source\PSoC4/UART_Tx.c ****     while((char8) '\0' != current)
 113              		.loc 1 147 0
 114 001a 15E0     		b	.L4
 115              	.L5:
 148:.\Generated_Source\PSoC4/UART_Tx.c ****     {
 149:.\Generated_Source\PSoC4/UART_Tx.c ****         UART_Tx_PutChar((uint8)current);
 116              		.loc 1 149 0
 117 001c 3B1C     		mov	r3, r7
 118 001e 0E33     		add	r3, r3, #14
 119 0020 1B78     		ldrb	r3, [r3]
 120 0022 181C     		mov	r0, r3
 121 0024 FFF7FEFF 		bl	UART_Tx_PutChar
 150:.\Generated_Source\PSoC4/UART_Tx.c ****         current = string[stringIndex];
 122              		.loc 1 150 0
 123 0028 3B1C     		mov	r3, r7
 124 002a 0F33     		add	r3, r3, #15
 125 002c 1B78     		ldrb	r3, [r3]
 126 002e 7A68     		ldr	r2, [r7, #4]
 127 0030 D218     		add	r2, r2, r3
 128 0032 3B1C     		mov	r3, r7
 129 0034 0E33     		add	r3, r3, #14
 130 0036 1278     		ldrb	r2, [r2]
 131 0038 1A70     		strb	r2, [r3]
 151:.\Generated_Source\PSoC4/UART_Tx.c ****         stringIndex++;
 132              		.loc 1 151 0
 133 003a 3B1C     		mov	r3, r7
 134 003c 0F33     		add	r3, r3, #15
ARM GAS  C:\Users\MATTHE~1\AppData\Local\Temp\ccE43Ycc.s 			page 6


 135 003e 1A78     		ldrb	r2, [r3]
 136 0040 3B1C     		mov	r3, r7
 137 0042 0F33     		add	r3, r3, #15
 138 0044 0132     		add	r2, r2, #1
 139 0046 1A70     		strb	r2, [r3]
 140              	.L4:
 147:.\Generated_Source\PSoC4/UART_Tx.c ****     while((char8) '\0' != current)
 141              		.loc 1 147 0 discriminator 1
 142 0048 3B1C     		mov	r3, r7
 143 004a 0E33     		add	r3, r3, #14
 144 004c 1B78     		ldrb	r3, [r3]
 145 004e 002B     		cmp	r3, #0
 146 0050 E4D1     		bne	.L5
 152:.\Generated_Source\PSoC4/UART_Tx.c ****     }
 153:.\Generated_Source\PSoC4/UART_Tx.c **** }
 147              		.loc 1 153 0
 148 0052 BD46     		mov	sp, r7
 149 0054 04B0     		add	sp, sp, #16
 150              		@ sp needed
 151 0056 80BD     		pop	{r7, pc}
 152              		.cfi_endproc
 153              	.LFE2:
 154              		.size	UART_Tx_PutString, .-UART_Tx_PutString
 155              		.section	.text.UART_Tx_PutArray,"ax",%progbits
 156              		.align	2
 157              		.global	UART_Tx_PutArray
 158              		.code	16
 159              		.thumb_func
 160              		.type	UART_Tx_PutArray, %function
 161              	UART_Tx_PutArray:
 162              	.LFB3:
 154:.\Generated_Source\PSoC4/UART_Tx.c **** 
 155:.\Generated_Source\PSoC4/UART_Tx.c **** 
 156:.\Generated_Source\PSoC4/UART_Tx.c **** /*******************************************************************************
 157:.\Generated_Source\PSoC4/UART_Tx.c **** * Function Name: UART_Tx_PutArray
 158:.\Generated_Source\PSoC4/UART_Tx.c **** ********************************************************************************
 159:.\Generated_Source\PSoC4/UART_Tx.c **** *
 160:.\Generated_Source\PSoC4/UART_Tx.c **** * Summary:
 161:.\Generated_Source\PSoC4/UART_Tx.c **** *  Sends byteCount bytes from a memory array via the Tx pin.
 162:.\Generated_Source\PSoC4/UART_Tx.c **** *
 163:.\Generated_Source\PSoC4/UART_Tx.c **** * Parameters:
 164:.\Generated_Source\PSoC4/UART_Tx.c **** *  data: Pointer to the memory array
 165:.\Generated_Source\PSoC4/UART_Tx.c **** *  byteCount: Number of bytes to be transmitted
 166:.\Generated_Source\PSoC4/UART_Tx.c **** *
 167:.\Generated_Source\PSoC4/UART_Tx.c **** * Return:
 168:.\Generated_Source\PSoC4/UART_Tx.c **** *  None
 169:.\Generated_Source\PSoC4/UART_Tx.c **** *
 170:.\Generated_Source\PSoC4/UART_Tx.c **** *******************************************************************************/
 171:.\Generated_Source\PSoC4/UART_Tx.c **** void UART_Tx_PutArray(const uint8 array[], uint32 byteCount) 
 172:.\Generated_Source\PSoC4/UART_Tx.c **** {
 163              		.loc 1 172 0
 164              		.cfi_startproc
 165 0000 80B5     		push	{r7, lr}
 166              		.cfi_def_cfa_offset 8
 167              		.cfi_offset 7, -8
 168              		.cfi_offset 14, -4
 169 0002 84B0     		sub	sp, sp, #16
ARM GAS  C:\Users\MATTHE~1\AppData\Local\Temp\ccE43Ycc.s 			page 7


 170              		.cfi_def_cfa_offset 24
 171 0004 00AF     		add	r7, sp, #0
 172              		.cfi_def_cfa_register 7
 173 0006 7860     		str	r0, [r7, #4]
 174 0008 3960     		str	r1, [r7]
 173:.\Generated_Source\PSoC4/UART_Tx.c ****     uint32 arrayIndex;
 174:.\Generated_Source\PSoC4/UART_Tx.c **** 
 175:.\Generated_Source\PSoC4/UART_Tx.c ****     for (arrayIndex = 0u; arrayIndex < byteCount; arrayIndex++)
 175              		.loc 1 175 0
 176 000a 0023     		mov	r3, #0
 177 000c FB60     		str	r3, [r7, #12]
 178 000e 09E0     		b	.L7
 179              	.L8:
 176:.\Generated_Source\PSoC4/UART_Tx.c ****     {
 177:.\Generated_Source\PSoC4/UART_Tx.c ****         UART_Tx_PutChar(array[arrayIndex]);
 180              		.loc 1 177 0 discriminator 2
 181 0010 7A68     		ldr	r2, [r7, #4]
 182 0012 FB68     		ldr	r3, [r7, #12]
 183 0014 D318     		add	r3, r2, r3
 184 0016 1B78     		ldrb	r3, [r3]
 185 0018 181C     		mov	r0, r3
 186 001a FFF7FEFF 		bl	UART_Tx_PutChar
 175:.\Generated_Source\PSoC4/UART_Tx.c ****     for (arrayIndex = 0u; arrayIndex < byteCount; arrayIndex++)
 187              		.loc 1 175 0 discriminator 2
 188 001e FB68     		ldr	r3, [r7, #12]
 189 0020 0133     		add	r3, r3, #1
 190 0022 FB60     		str	r3, [r7, #12]
 191              	.L7:
 175:.\Generated_Source\PSoC4/UART_Tx.c ****     for (arrayIndex = 0u; arrayIndex < byteCount; arrayIndex++)
 192              		.loc 1 175 0 is_stmt 0 discriminator 1
 193 0024 FA68     		ldr	r2, [r7, #12]
 194 0026 3B68     		ldr	r3, [r7]
 195 0028 9A42     		cmp	r2, r3
 196 002a F1D3     		bcc	.L8
 178:.\Generated_Source\PSoC4/UART_Tx.c ****     }
 179:.\Generated_Source\PSoC4/UART_Tx.c **** }
 197              		.loc 1 179 0 is_stmt 1
 198 002c BD46     		mov	sp, r7
 199 002e 04B0     		add	sp, sp, #16
 200              		@ sp needed
 201 0030 80BD     		pop	{r7, pc}
 202              		.cfi_endproc
 203              	.LFE3:
 204              		.size	UART_Tx_PutArray, .-UART_Tx_PutArray
 205 0032 C046     		.section	.text.UART_Tx_PutHexByte,"ax",%progbits
 206              		.align	2
 207              		.global	UART_Tx_PutHexByte
 208              		.code	16
 209              		.thumb_func
 210              		.type	UART_Tx_PutHexByte, %function
 211              	UART_Tx_PutHexByte:
 212              	.LFB4:
 180:.\Generated_Source\PSoC4/UART_Tx.c **** 
 181:.\Generated_Source\PSoC4/UART_Tx.c **** 
 182:.\Generated_Source\PSoC4/UART_Tx.c **** /*******************************************************************************
 183:.\Generated_Source\PSoC4/UART_Tx.c **** * Function Name: UART_Tx_PutHexByte
 184:.\Generated_Source\PSoC4/UART_Tx.c **** ********************************************************************************
ARM GAS  C:\Users\MATTHE~1\AppData\Local\Temp\ccE43Ycc.s 			page 8


 185:.\Generated_Source\PSoC4/UART_Tx.c **** *
 186:.\Generated_Source\PSoC4/UART_Tx.c **** * Summary:
 187:.\Generated_Source\PSoC4/UART_Tx.c **** *  Sends a byte in Hex representation (two characters, uppercase for A-F) via
 188:.\Generated_Source\PSoC4/UART_Tx.c **** *  the Tx pin.
 189:.\Generated_Source\PSoC4/UART_Tx.c **** *
 190:.\Generated_Source\PSoC4/UART_Tx.c **** * Parameters:
 191:.\Generated_Source\PSoC4/UART_Tx.c **** *  TxHexByte: The byte to be converted to ASCII characters and
 192:.\Generated_Source\PSoC4/UART_Tx.c **** *             sent via the Tx pin.
 193:.\Generated_Source\PSoC4/UART_Tx.c **** *
 194:.\Generated_Source\PSoC4/UART_Tx.c **** * Return:
 195:.\Generated_Source\PSoC4/UART_Tx.c **** *  None
 196:.\Generated_Source\PSoC4/UART_Tx.c **** *
 197:.\Generated_Source\PSoC4/UART_Tx.c **** *******************************************************************************/
 198:.\Generated_Source\PSoC4/UART_Tx.c **** void UART_Tx_PutHexByte(uint8 txHexByte) 
 199:.\Generated_Source\PSoC4/UART_Tx.c **** {
 213              		.loc 1 199 0
 214              		.cfi_startproc
 215 0000 80B5     		push	{r7, lr}
 216              		.cfi_def_cfa_offset 8
 217              		.cfi_offset 7, -8
 218              		.cfi_offset 14, -4
 219 0002 82B0     		sub	sp, sp, #8
 220              		.cfi_def_cfa_offset 16
 221 0004 00AF     		add	r7, sp, #0
 222              		.cfi_def_cfa_register 7
 223 0006 021C     		mov	r2, r0
 224 0008 FB1D     		add	r3, r7, #7
 225 000a 1A70     		strb	r2, [r3]
 200:.\Generated_Source\PSoC4/UART_Tx.c ****     static char8 const CYCODE UART_Tx_hex[] = "0123456789ABCDEF";
 201:.\Generated_Source\PSoC4/UART_Tx.c **** 
 202:.\Generated_Source\PSoC4/UART_Tx.c ****     UART_Tx_PutChar((uint8) UART_Tx_hex[txHexByte >> UART_Tx_BYTE_UPPER_NIBBLE_SHIFT]);
 226              		.loc 1 202 0
 227 000c FB1D     		add	r3, r7, #7
 228 000e 1B78     		ldrb	r3, [r3]
 229 0010 1B09     		lsr	r3, r3, #4
 230 0012 DBB2     		uxtb	r3, r3
 231 0014 084A     		ldr	r2, .L10
 232 0016 D35C     		ldrb	r3, [r2, r3]
 233 0018 181C     		mov	r0, r3
 234 001a FFF7FEFF 		bl	UART_Tx_PutChar
 203:.\Generated_Source\PSoC4/UART_Tx.c ****     UART_Tx_PutChar((uint8) UART_Tx_hex[txHexByte & UART_Tx_BYTE_LOWER_NIBBLE_MASK]);
 235              		.loc 1 203 0
 236 001e FB1D     		add	r3, r7, #7
 237 0020 1A78     		ldrb	r2, [r3]
 238 0022 0F23     		mov	r3, #15
 239 0024 1340     		and	r3, r2
 240 0026 044A     		ldr	r2, .L10
 241 0028 D35C     		ldrb	r3, [r2, r3]
 242 002a 181C     		mov	r0, r3
 243 002c FFF7FEFF 		bl	UART_Tx_PutChar
 204:.\Generated_Source\PSoC4/UART_Tx.c **** }
 244              		.loc 1 204 0
 245 0030 BD46     		mov	sp, r7
 246 0032 02B0     		add	sp, sp, #8
 247              		@ sp needed
 248 0034 80BD     		pop	{r7, pc}
 249              	.L11:
ARM GAS  C:\Users\MATTHE~1\AppData\Local\Temp\ccE43Ycc.s 			page 9


 250 0036 C046     		.align	2
 251              	.L10:
 252 0038 00000000 		.word	UART_Tx_hex.4173
 253              		.cfi_endproc
 254              	.LFE4:
 255              		.size	UART_Tx_PutHexByte, .-UART_Tx_PutHexByte
 256              		.section	.text.UART_Tx_PutHexInt,"ax",%progbits
 257              		.align	2
 258              		.global	UART_Tx_PutHexInt
 259              		.code	16
 260              		.thumb_func
 261              		.type	UART_Tx_PutHexInt, %function
 262              	UART_Tx_PutHexInt:
 263              	.LFB5:
 205:.\Generated_Source\PSoC4/UART_Tx.c **** 
 206:.\Generated_Source\PSoC4/UART_Tx.c **** 
 207:.\Generated_Source\PSoC4/UART_Tx.c **** /*******************************************************************************
 208:.\Generated_Source\PSoC4/UART_Tx.c **** * Function Name: UART_Tx_PutHexInt
 209:.\Generated_Source\PSoC4/UART_Tx.c **** ********************************************************************************
 210:.\Generated_Source\PSoC4/UART_Tx.c **** *
 211:.\Generated_Source\PSoC4/UART_Tx.c **** * Summary:
 212:.\Generated_Source\PSoC4/UART_Tx.c **** *  Sends a 16-bit unsigned integer in Hex representation (four characters,
 213:.\Generated_Source\PSoC4/UART_Tx.c **** *  uppercase for A-F) via the Tx pin.
 214:.\Generated_Source\PSoC4/UART_Tx.c **** *
 215:.\Generated_Source\PSoC4/UART_Tx.c **** * Parameters:
 216:.\Generated_Source\PSoC4/UART_Tx.c **** *  TxHexInt: The uint16 to be converted to ASCII characters and sent via
 217:.\Generated_Source\PSoC4/UART_Tx.c **** *            the Tx pin.
 218:.\Generated_Source\PSoC4/UART_Tx.c **** *
 219:.\Generated_Source\PSoC4/UART_Tx.c **** * Return:
 220:.\Generated_Source\PSoC4/UART_Tx.c **** *  None
 221:.\Generated_Source\PSoC4/UART_Tx.c **** *
 222:.\Generated_Source\PSoC4/UART_Tx.c **** *******************************************************************************/
 223:.\Generated_Source\PSoC4/UART_Tx.c **** void UART_Tx_PutHexInt(uint16 txHexInt) 
 224:.\Generated_Source\PSoC4/UART_Tx.c **** {
 264              		.loc 1 224 0
 265              		.cfi_startproc
 266 0000 80B5     		push	{r7, lr}
 267              		.cfi_def_cfa_offset 8
 268              		.cfi_offset 7, -8
 269              		.cfi_offset 14, -4
 270 0002 82B0     		sub	sp, sp, #8
 271              		.cfi_def_cfa_offset 16
 272 0004 00AF     		add	r7, sp, #0
 273              		.cfi_def_cfa_register 7
 274 0006 021C     		mov	r2, r0
 275 0008 BB1D     		add	r3, r7, #6
 276 000a 1A80     		strh	r2, [r3]
 225:.\Generated_Source\PSoC4/UART_Tx.c ****     UART_Tx_PutHexByte((uint8)(txHexInt >> UART_Tx_U16_UPPER_BYTE_SHIFT));
 277              		.loc 1 225 0
 278 000c BB1D     		add	r3, r7, #6
 279 000e 1B88     		ldrh	r3, [r3]
 280 0010 1B0A     		lsr	r3, r3, #8
 281 0012 9BB2     		uxth	r3, r3
 282 0014 DBB2     		uxtb	r3, r3
 283 0016 181C     		mov	r0, r3
 284 0018 FFF7FEFF 		bl	UART_Tx_PutHexByte
 226:.\Generated_Source\PSoC4/UART_Tx.c ****     UART_Tx_PutHexByte((uint8)(txHexInt & UART_Tx_U16_LOWER_BYTE_MASK));
ARM GAS  C:\Users\MATTHE~1\AppData\Local\Temp\ccE43Ycc.s 			page 10


 285              		.loc 1 226 0
 286 001c BB1D     		add	r3, r7, #6
 287 001e 1B88     		ldrh	r3, [r3]
 288 0020 DBB2     		uxtb	r3, r3
 289 0022 181C     		mov	r0, r3
 290 0024 FFF7FEFF 		bl	UART_Tx_PutHexByte
 227:.\Generated_Source\PSoC4/UART_Tx.c **** }
 291              		.loc 1 227 0
 292 0028 BD46     		mov	sp, r7
 293 002a 02B0     		add	sp, sp, #8
 294              		@ sp needed
 295 002c 80BD     		pop	{r7, pc}
 296              		.cfi_endproc
 297              	.LFE5:
 298              		.size	UART_Tx_PutHexInt, .-UART_Tx_PutHexInt
 299 002e C046     		.section	.text.UART_Tx_PutCRLF,"ax",%progbits
 300              		.align	2
 301              		.global	UART_Tx_PutCRLF
 302              		.code	16
 303              		.thumb_func
 304              		.type	UART_Tx_PutCRLF, %function
 305              	UART_Tx_PutCRLF:
 306              	.LFB6:
 228:.\Generated_Source\PSoC4/UART_Tx.c **** 
 229:.\Generated_Source\PSoC4/UART_Tx.c **** 
 230:.\Generated_Source\PSoC4/UART_Tx.c **** /*******************************************************************************
 231:.\Generated_Source\PSoC4/UART_Tx.c **** * Function Name: UART_Tx_PutCRLF
 232:.\Generated_Source\PSoC4/UART_Tx.c **** ********************************************************************************
 233:.\Generated_Source\PSoC4/UART_Tx.c **** *
 234:.\Generated_Source\PSoC4/UART_Tx.c **** * Summary:
 235:.\Generated_Source\PSoC4/UART_Tx.c **** *  Sends a carriage return (0x0D) and a line feed (0x0A) via the Tx pin.
 236:.\Generated_Source\PSoC4/UART_Tx.c **** *
 237:.\Generated_Source\PSoC4/UART_Tx.c **** * Parameters:
 238:.\Generated_Source\PSoC4/UART_Tx.c **** *  None
 239:.\Generated_Source\PSoC4/UART_Tx.c **** *
 240:.\Generated_Source\PSoC4/UART_Tx.c **** * Return:
 241:.\Generated_Source\PSoC4/UART_Tx.c **** *  None
 242:.\Generated_Source\PSoC4/UART_Tx.c **** *
 243:.\Generated_Source\PSoC4/UART_Tx.c **** *******************************************************************************/
 244:.\Generated_Source\PSoC4/UART_Tx.c **** void UART_Tx_PutCRLF(void) 
 245:.\Generated_Source\PSoC4/UART_Tx.c **** {
 307              		.loc 1 245 0
 308              		.cfi_startproc
 309 0000 80B5     		push	{r7, lr}
 310              		.cfi_def_cfa_offset 8
 311              		.cfi_offset 7, -8
 312              		.cfi_offset 14, -4
 313 0002 00AF     		add	r7, sp, #0
 314              		.cfi_def_cfa_register 7
 246:.\Generated_Source\PSoC4/UART_Tx.c ****     UART_Tx_PutChar(0x0Du);
 315              		.loc 1 246 0
 316 0004 0D20     		mov	r0, #13
 317 0006 FFF7FEFF 		bl	UART_Tx_PutChar
 247:.\Generated_Source\PSoC4/UART_Tx.c ****     UART_Tx_PutChar(0x0Au);
 318              		.loc 1 247 0
 319 000a 0A20     		mov	r0, #10
 320 000c FFF7FEFF 		bl	UART_Tx_PutChar
ARM GAS  C:\Users\MATTHE~1\AppData\Local\Temp\ccE43Ycc.s 			page 11


 248:.\Generated_Source\PSoC4/UART_Tx.c **** }
 321              		.loc 1 248 0
 322 0010 BD46     		mov	sp, r7
 323              		@ sp needed
 324 0012 80BD     		pop	{r7, pc}
 325              		.cfi_endproc
 326              	.LFE6:
 327              		.size	UART_Tx_PutCRLF, .-UART_Tx_PutCRLF
 328              		.section	.rodata
 329              		.align	2
 330              		.type	UART_Tx_hex.4173, %object
 331              		.size	UART_Tx_hex.4173, 17
 332              	UART_Tx_hex.4173:
 333 0000 30313233 		.ascii	"0123456789ABCDEF\000"
 333      34353637 
 333      38394142 
 333      43444546 
 333      00
 334 0011 000000   		.text
 335              	.Letext0:
 336              		.file 2 ".\\Generated_Source\\PSoC4\\cytypes.h"